(dp0
Vscreenplay
p1
F0.7048600167005913
sVpublicity_printers
p2
F0.16434948291248114
sVproducer
p3
F2.6073652997795937
sVassistant_art_director
p4
F0.03195407256047971
sVbackground_music
p5
F0.6551435913365898
sVmusic_director
p6
F18.602398661537986
sVbusiness_executive
p7
F0.004572581421958412
sVproduction_assistant
p8
F0.04956818684054494
sVre-recordist
p9
F0.04989245059557803
sVtitles
p10
F1.3145324136842538
sVplayback_singer
p11
F383.0455871734842
sVyear
p12
F140.661917633774
sVdistributor
p13
F1.5022359525899887
sVlaboratory
p14
F3.134336659027159
sVstill_photographer
p15
F0.08868259718093821
sVchief_assistant_cinematographer
p16
F0.010744499347655397
sVdedicated_to_
p17
F0.0044943820224719105
sVchild_artiste_supp
p18
F0.00931230554661517
sVstory
p19
F0.6356520145676865
sVassistant_costume_designer
p20
F0.007800885218883537
sVproduction_designer
p21
F0.22260545402301987
sVlyrics
p22
F68.14738552085645
sVaction_director
p23
F7.858274356485407
sVpresenter
p24
F0.2155921650298385
sVassistant_action_director
p25
F0.07867059238853573
sVnegative_editor
p26
F0.01996905548674998
sVsound_effects
p27
F0.05030119574012368
sVcasting_director
p28
F0.0750363865795551
sVeditor
p29
F4.694785769354094
sVhair_stylist
p30
F0.29222865495363853
sVchartered_accountants
p31
F0.022437296728300662
sVaudiographer
p32
F4.6170870516692615
sVline_producer
p33
F0.00771011138434833
sVsound_designer
p34
F0.7536802807509284
sVsound_editing
p35
F0.019928567693619104
sVdialogue
p36
F1.3352777845501393
sVnarrator
p37
F0.014765442396481351
sVexecutive_producer
p38
F0.17269026991880804
sVcostumes_designer
p39
F12.61974956559138
sVassociate_director
p40
F0.0029585798816568047
sVdirector
p41
F1.8952967853709044
sVpromos
p42
F0.30686917044965195
sVcinematographer
p43
F3.9660141342541326
sVassistant_audiographer
p44
F0.006802721088435374
sVassistant_make_up_person
p45
F0.023515421289857962
sVpublicity_design
p46
F10.18810367443912
sVbanner
p47
F9.902660889027723
sVmake_up_
p48
F0.6946332593319092
sVchoreographer
p49
F42.245309164511625
sVassistant_music_director
p50
F0.3599697440469104
sVassistant_editor
p51
F0.13889970665119275
sVassistant_director
p52
F0.1468363414786934
sVremix
p53
F0.05459210208587478
sVassistant_cinematographer
p54
F0.05976660505441625
sVdressman
p55
F0.020575531915931766
sVname
p56
F0.31887268198770624
sVart_director
p57
F9.168633019081456
sVproduction_controller
p58
F0.023550541804811254
sVproduction_manager
p59
F0.006793991527696473
sVassociate_producer
p60
F0.008659658116697552
sVvisual_effects
p61
F1.3118099517715525
sVco-producer
p62
F0.20071488148904504
sVcast
p63
F258.82711406694875
sVpublicity_campaigners
p64
F0.06364068815375104
sVthanks_to
p65
F0.01436030570332996
sVcolour_consultant
p66
F0.7487926570240812
sVmedia_relation
p67
F3.9317074238259817
sVassistant_choreographer
p68
F0.2695256490035197
sVlegal_advisor
p69
F0.5894442709731779
s.