(lp0
(VChal Chalein
p1
F0.7954545454545454
tp2
a(VYaadein
p3
F0.7045454545454546
tp4
a(VJaan-E-Mann: Let's Fall in Love... Again
p5
F0.6590909090909092
tp6
a(VMy Name Is Anthony Gonsalves
p7
F0.6363636363636364
tp8
a(VWhat's Your Raashee?
p9
F0.6136363636363636
tp10
a(VHousefull
p11
F0.6136363636363636
tp12
a(VDil Bole Hadippa!
p13
F0.5909090909090908
tp14
a(VZubeidaa
p15
F0.5681818181818181
tp16
a(VYeh Dillagi
p17
F0.5681818181818181
tp18
a(VSaajan
p19
F0.5681818181818181
tp20
a(VIndian Babu
p21
F0.5681818181818181
tp22
a(VCoolie
p23
F0.5681818181818181
tp24
a(VChance Pe Dance
p25
F0.5681818181818181
tp26
a(VApne
p27
F0.5681818181818181
tp28
a(VWorld Cupp 2011
p29
F0.5454545454545454
tp30
a(VYes Boss
p31
F0.5227272727272727
tp32
a(VWaisa Bhi Hota Hai - Part II
p33
F0.5227272727272727
tp34
a(VVidhaata
p35
F0.5227272727272727
tp36
a(VAnjaana Anjaani
p37
F0.5227272727272727
tp38
a(VSaathiya
p39
F0.5
tp40
a(VQasam Se Qasam Se
p41
F0.5
tp42
a(VOm Jai Jagadish
p43
F0.5
tp44
a(VOm Shanti Om
p45
F0.5
tp46
a(VLajja
p47
F0.5
tp48
a(VGhatak
p49
F0.5
tp50
a(VBaabul
p51
F0.5
tp52
a(VAgneepath
p53
F0.5
tp54
a(VTere Mere Sapne
p55
F0.4772727272727273
tp56
a(VSalaam-E-Ishq
p57
F0.4772727272727273
tp58
a(VLava-Kusa : The Warrior Twins
p59
F0.4772727272727273
tp60
a(VKaante
p61
F0.4772727272727273
tp62
a(VJashnn
p63
F0.4772727272727273
tp64
a(VHera Pheri
p65
F0.4772727272727273
tp66
a(VUmang
p67
F0.4545454545454546
tp68
a(VSaagar
p69
F0.4545454545454546
tp70
a(VWaqt - The Race Against Time
p71
F0.45454545454545453
tp72
a(VSoldier
p73
F0.45454545454545453
tp74
a(VSadiyaan
p75
F0.45454545454545453
tp76
a(VRam Gopal Varma Ke Aag
p77
F0.45454545454545453
tp78
a(VLakeer - Forbidden Lines
p79
F0.45454545454545453
tp80
a(VL.O.C. Kargil
p81
F0.45454545454545453
tp82
a(VKabhi Khushi Kabhie Gham...
p83
F0.45454545454545453
tp84
a(VGuru
p85
F0.45454545454545453
tp86
a(VBol Bachchan
p87
F0.45454545454545453
tp88
a(VAction Replayy
p89
F0.45454545454545453
tp90
a(VWelcome
p91
F0.4318181818181818
tp92
a(VRann
p93
F0.4318181818181818
tp94
a(VRangeela
p95
F0.4318181818181818
tp96
a(VQayamat
p97
F0.4318181818181818
tp98
a(VPartner
p99
F0.4318181818181818
tp100
a(VPage 3
p101
F0.4318181818181818
tp102
a(VMilenge Milenge
p103
F0.4318181818181818
tp104
a(VLucky - No Time For Love
p105
F0.4318181818181818
tp106
a(VLove Sex Aur Dhokha
p107
F0.4318181818181818
tp108
a(VLagaan
p109
F0.4318181818181818
tp110
a(VJab We Met
p111
F0.4318181818181818
tp112
a(VGupt
p113
F0.4318181818181818
tp114
a(VGolmaal 3
p115
F0.4318181818181818
tp116
a(VEk Ajnabee
p117
F0.4318181818181818
tp118
a(VDus
p119
F0.4318181818181818
tp120
a(VDhamaal
p121
F0.4318181818181818
tp122
a(VDepartment
p123
F0.4318181818181818
tp124
a(VChina Gate
p125
F0.4318181818181818
tp126
a(VYuvvraaj
p127
F0.4090909090909091
tp128
a(VVaada
p129
F0.4090909090909091
tp130
a(VVeer
p131
F0.4090909090909091
tp132
a(VUndertrial
p133
F0.4090909090909091
tp134
a(VTaarzan - The Wonder Car
p135
F0.4090909090909091
tp136
a(VTa Ra Rum Pum
p137
F0.4090909090909091
tp138
a(VTees Maar Khan
p139
F0.4090909090909091
tp140
a(VTaal
p141
F0.4090909090909091
tp142
a(VShootout At Lokhandwala
p143
F0.4090909090909091
tp144
a(VRaajneeti
p145
F0.4090909090909091
tp146
a(VPyar To Hona Hi Tha
p147
F0.4090909090909091
tp148
a(VNo Entry
p149
F0.4090909090909091
tp150
a(VLakshya
p151
F0.4090909090909091
tp152
a(VKhatta Meetha
p153
F0.4090909090909091
tp154
a(VKhakee
p155
F0.4090909090909091
tp156
a(VKarzzzz
p157
F0.4090909090909091
tp158
a(VKal Ho Naa Ho
p159
F0.4090909090909091
tp160
a(VKabhi Alvida Na Kehna
p161
F0.4090909090909091
tp162
a(VIndian
p163
F0.4090909090909091
tp164
a(VIshq Hai Tumse
p165
F0.4090909090909091
tp166
a(VHar Dil Jo Pyar Karega
p167
F0.4090909090909091
tp168
a(VHum Tum Aur Ghost
p169
F0.4090909090909091
tp170
a(VHulchul
p171
F0.4090909090909091
tp172
a(VHello Darling
p173
F0.4090909090909091
tp174
a(VGarv: Pride and Honour
p175
F0.4090909090909091
tp176
a(VGod Tussi Great Ho
p177
F0.4090909090909091
tp178
a(VGaram Masala
p179
F0.4090909090909091
tp180
a(VFun2Shh.......Dudes In The 10Th Century
p181
F0.4090909090909091
tp182
a(VFarz
p183
F0.4090909090909091
tp184
a(VFiza
p185
F0.4090909090909091
tp186
a(VEk Khiladi Ek Haseena
p187
F0.4090909090909091
tp188
a(VElaan
p189
F0.4090909090909091
tp190
a(VEk Second Jo Zindagi Badal De
p191
F0.4090909090909091
tp192
a(VE M I
p193
F0.4090909090909091
tp194
a(VDelhi 6
p195
F0.4090909090909091
tp196
a(VDamini
p197
F0.4090909090909091
tp198
a(VClick
p199
F0.4090909090909091
tp200
a(VChup Chup Ke
p201
F0.4090909090909091
tp202
a(VBunty Aur Babli
p203
F0.4090909090909091
tp204
a(VBiwi No. 1
p205
F0.4090909090909091
tp206
a(VBillu
p207
F0.4090909090909091
tp208
a(VBaghban
p209
F0.4090909090909091
tp210
a(VAitraaz
p211
F0.4090909090909091
tp212
a(VAashayein
p213
F0.4090909090909091
tp214
a(VNaram Garam
p215
F0.40909090909090906
tp216
a(VNamak Halaal
p217
F0.40909090909090906
tp218
a(VLottery
p219
F0.40909090909090906
tp220
a(VHide & Seek
p221
F0.40909090909090906
tp222
a(VDeewar
p223
F0.40909090909090906
tp224
a(VYakeen
p225
F0.38636363636363635
tp226
a(VUthhaan
p227
F0.38636363636363635
tp228
a(VTraffic Signal
p229
F0.38636363636363635
tp230
a(VThe Legend Of Bhagat Singh
p231
F0.38636363636363635
tp232
a(VTere Naam
p233
F0.38636363636363635
tp234
a(VTaxi No. 9 2 11
p235
F0.38636363636363635
tp236
a(VSalaam Namaste
p237
F0.38636363636363635
tp238
a(VSaawariya
p239
F0.38636363636363635
tp240
a(VRefugee
p241
F0.38636363636363635
tp242
a(VRam Teri Ganga Maili
p243
F0.38636363636363635
tp244
a(VRaavan
p245
F0.38636363636363635
tp246
a(VPukar
p247
F0.38636363636363635
tp248
a(VPaheli
p249
F0.38636363636363635
tp250
a(VOne 2 Ka 4
p251
F0.38636363636363635
tp252
a(VNaksha
p253
F0.38636363636363635
tp254
a(VNehlle Pe Dehlla
p255
F0.38636363636363635
tp256
a(VNayak
p257
F0.38636363636363635
tp258
a(VMusaa
p259
F0.38636363636363635
tp260
a(VMere Baap Pehle Aap
p261
F0.38636363636363635
tp262
a(VMain Hoon Na
p263
F0.38636363636363635
tp264
a(VLife Mein Kabhie Kabhiee
p265
F0.38636363636363635
tp266
a(VLaaga Chunari Mein Daag
p267
F0.38636363636363635
tp268
a(VKrazzy 4
p269
F0.38636363636363635
tp270
a(VKrantiveer - The Revolution
p271
F0.38636363636363635
tp272
a(VJungle
p273
F0.38636363636363635
tp274
a(VJhoom Barabar Jhoom
p275
F0.38636363636363635
tp276
a(VJoker
p277
F0.38636363636363635
tp278
a(VJohny Mera Naam
p279
F0.38636363636363635
tp280
a(VJaane Kahan Se Aayi Hai
p281
F0.38636363636363635
tp282
a(VInsaaf -The Justice
p283
F0.38636363636363635
tp284
a(VIshq Vishk
p285
F0.38636363636363635
tp286
a(VIdiot Box
p287
F0.38636363636363635
tp288
a(VHungama
p289
F0.38636363636363635
tp290
a(VHousefull 2
p291
F0.38636363636363635
tp292
a(VHoneymoon Travels Pvt. Ltd.
p293
F0.38636363636363635
tp294
a(VHeyy Babyy
p295
F0.38636363636363635
tp296
a(VHalla Bol
p297
F0.38636363636363635
tp298
a(VGumnaam - The Mystery
p299
F0.38636363636363635
tp300
a(VGolmaal Returns
p301
F0.38636363636363635
tp302
a(VFool N Final
p303
F0.38636363636363635
tp304
a(VFida
p305
F0.38636363636363635
tp306
a(VEk Aur Ek Gyarah
p307
F0.38636363636363635
tp308
a(VEk Aadat
p309
F0.38636363636363635
tp310
a(VDon
p311
F0.38636363636363635
tp312
a(VChhoti Bahu
p313
F0.38636363636363635
tp314
a(VChamatkar
p315
F0.38636363636363635
tp316
a(VChamku
p317
F0.38636363636363635
tp318
a(VBhool Bhulaiyaa
p319
F0.38636363636363635
tp320
a(VBaadshah
p321
F0.38636363636363635
tp322
a(VAkele Hum Akele Tum
p323
F0.38636363636363635
tp324
a(VAda.. A Way Of Life
p325
F0.38636363636363635
tp326
a(VZameer - The Fire Within
p327
F0.36363636363636365
tp328
a(VZinda
p329
F0.36363636363636365
tp330
a(VZameen
p331
F0.36363636363636365
tp332
a(VYeh Raaste Hain Pyaar Ke
p333
F0.36363636363636365
tp334
a(VYeh Dil Aashiqana
p335
F0.36363636363636365
tp336
a(VYeh Tera Ghar Yeh Mera Ghar
p337
F0.36363636363636365
tp338
a(VYatra
p339
F0.36363636363636365
tp340
a(VVishwatma
p341
F0.36363636363636365
tp342
a(VVaah! Life Ho Toh Aisi!
p343
F0.36363636363636365
tp344
a(VVaastav
p345
F0.36363636363636365
tp346
a(VUdhar Ki Zindagi
p347
F0.36363636363636365
tp348
a(VThe Hangman
p349
F0.36363636363636365
tp350
a(VTeen Patti
p351
F0.36363636363636365
tp352
a(VTashan
p353
F0.36363636363636365
tp354
a(VShakti
p355
F0.36363636363636365
tp356
a(VShaapit
p357
F0.36363636363636365
tp358
a(VSatya
p359
F0.36363636363636365
tp360
a(VRowdy Rathore
p361
F0.36363636363636365
tp362
a(VRight Yaaa Wrong
p363
F0.36363636363636365
tp364
a(VRace
p365
F0.36363636363636365
tp366
a(VQaidi
p367
F0.36363636363636365
tp368
a(VQaid Mein Hai Bulbul
p369
F0.36363636363636365
tp370
a(VPaying Guests
p371
F0.36363636363636365
tp372
a(VPrince
p373
F0.36363636363636365
tp374
a(VParinda
p375
F0.36363636363636365
tp376
a(VNaya Daur
p377
F0.36363636363636365
tp378
a(VNo Problem
p379
F0.36363636363636365
tp380
a(VNamastey London
p381
F0.36363636363636365
tp382
a(VMy Name Is Khan
p383
F0.36363636363636365
tp384
a(VMuskurake Dekh Zara
p385
F0.36363636363636365
tp386
a(VMujhse Shaadi Karogi
p387
F0.36363636363636365
tp388
a(VMoney Hai Toh Honey Hai
p389
F0.36363636363636365
tp390
a(VMohra
p391
F0.36363636363636365
tp392
a(VMission Istaanbul
p393
F0.36363636363636365
tp394
a(VMaine Pyaar Kyun Kiya
p395
F0.36363636363636365
tp396
a(VLife's Good
p397
F0.36363636363636365
tp398
a(VLove Ke Liye Kuch Bhi Karega
p399
F0.36363636363636365
tp400
a(VLuck By Chance
p401
F0.36363636363636365
tp402
a(VKrantiveer
p403
F0.36363636363636365
tp404
a(VKandahar
p405
F0.36363636363636365
tp406
a(VKajraare
p407
F0.36363636363636365
tp408
a(VKaho Naa... Pyaar Hai
p409
F0.36363636363636365
tp410
a(VJudaai
p411
F0.36363636363636365
tp412
a(VJosh
p413
F0.36363636363636365
tp414
a(VJogger's Park
p415
F0.36363636363636365
tp416
a(VJodhaa Akbar
p417
F0.36363636363636365
tp418
a(VHum Aapke Dil Mein Rehte Hain
p419
F0.36363636363636365
tp420
a(VHissss
p421
F0.36363636363636365
tp422
a(VHero No. 1
p423
F0.36363636363636365
tp424
a(VHello
p425
F0.36363636363636365
tp426
a(VHaal-e-dil
p427
F0.36363636363636365
tp428
a(VGuzaarish
p429
F0.36363636363636365
tp430
a(VGolmaal: Fun Unlimited
p431
F0.36363636363636365
tp432
a(VFootpath
p433
F0.36363636363636365
tp434
a(VFight Club
p435
F0.36363636363636365
tp436
a(VFanaa
p437
F0.36363636363636365
tp438
a(VDo Knot Disturb
p439
F0.36363636363636365
tp440
a(VDhoom 2
p441
F0.36363636363636365
tp442
a(VDhoom
p443
F0.36363636363636365
tp444
a(VDevdas
p445
F0.36363636363636365
tp446
a(VCalcutta Mail
p447
F0.36363636363636365
tp448
a(VC Kkompany
p449
F0.36363636363636365
tp450
a(VBachao
p451
F0.36363636363636365
tp452
a(VBaap Numbri Beta Dus Numbri
p453
F0.36363636363636365
tp454
a(VBumm Bumm Bole
p455
F0.36363636363636365
tp456
a(VBhoothnath
p457
F0.36363636363636365
tp458
a(VBhagam Bhag
p459
F0.36363636363636365
tp460
a(VBaazigar
p461
F0.36363636363636365
tp462
a(VAladin
p463
F0.36363636363636365
tp464
a(VAgneepath
p465
F0.36363636363636365
tp466
a(VAgent Vinod
p467
F0.36363636363636365
tp468
a(VAap Kaa Suroor The Moviee, The Real Luv Story
p469
F0.36363636363636365
tp470
a(VAankhen
p471
F0.36363636363636365
tp472
a(VAaina
p473
F0.36363636363636365
tp474
a(VZokkomon
p475
F0.3409090909090909
tp476
a(VZindagi Tere Naam
p477
F0.3409090909090909
tp478
a(VYeh Hai Jalwa
p479
F0.3409090909090909
tp480
a(VYun Hota Toh Kya Hota
p481
F0.3409090909090909
tp482
a(VWafaa
p483
F0.3409090909090909
tp484
a(VWelcome To Sajjanpur
p485
F0.3409090909090909
tp486
a(VWe Are Family
p487
F0.3409090909090909
tp488
a(VWanted
p489
F0.3409090909090909
tp490
a(VVictoria No. 203
p491
F0.3409090909090909
tp492
a(VVeer-Zaara
p493
F0.3409090909090909
tp494
a(VU R My Jaan
p495
F0.3409090909090909
tp496
a(VUuf Kya Jadoo Mohabbat Hai
p497
F0.3409090909090909
tp498
a(VUmar
p499
F0.3409090909090909
tp500
a(VTum Milo Toh Sahi
p501
F0.3409090909090909
tp502
a(VTrump Card
p503
F0.3409090909090909
tp504
a(VTridev
p505
F0.3409090909090909
tp506
a(VTeri Meri Kahaani
p507
F0.3409090909090909
tp508
a(VTaare Zameen Par
p509
F0.3409090909090909
tp510
a(VShaurya
p511
F0.3409090909090909
tp512
a(VSarfarosh
p513
F0.3409090909090909
tp514
a(VRam Jaane
p515
F0.3409090909090909
tp516
a(VRaja Hindustani
p517
F0.3409090909090909
tp518
a(VRaja Babu
p519
F0.3409090909090909
tp520
a(VRaaz
p521
F0.3409090909090909
tp522
a(VQila
p523
F0.3409090909090909
tp524
a(VPrem Kaa Game
p525
F0.3409090909090909
tp526
a(VPhir Hera-Pheri
p527
F0.3409090909090909
tp528
a(VParineeta
p529
F0.3409090909090909
tp530
a(VOut Of Control
p531
F0.3409090909090909
tp532
a(VNanhe Jaisalmer
p533
F0.3409090909090909
tp534
a(VNaajayaz
p535
F0.3409090909090909
tp536
a(VMission Kashmir
p537
F0.3409090909090909
tp538
a(VMasti
p539
F0.3409090909090909
tp540
a(VLife Express
p541
F0.3409090909090909
tp542
a(VLamhaa
p543
F0.3409090909090909
tp544
a(VKuchh Kariye
p545
F0.3409090909090909
tp546
a(VKuch Kuch Hota Hai
p547
F0.3409090909090909
tp548
a(VKoi... Mil Gaya
p549
F0.3409090909090909
tp550
a(VKismat Konnection
p551
F0.3409090909090909
tp552
a(VKidnap
p553
F0.3409090909090909
tp554
a(VKaminey
p555
F0.3409090909090909
tp556
a(VKambakkht Ishq
p557
F0.3409090909090909
tp558
a(VJo Jeeta Wohi Sikandar
p559
F0.3409090909090909
tp560
a(VJism
p561
F0.3409090909090909
tp562
a(VInsaan
p563
F0.3409090909090909
tp564
a(VIshq
p565
F0.3409090909090909
tp566
a(VIqbal
p567
F0.3409090909090909
tp568
a(VHum Tum
p569
F0.3409090909090909
tp570
a(VGayab
p571
F0.3409090909090909
tp572
a(VF.A.L.T.U.
p573
F0.3409090909090909
tp574
a(VFareb
p575
F0.3409090909090909
tp576
a(VEhsaas
p577
F0.3409090909090909
tp578
a(VEk Rishtaa: The Bond of Love
p579
F0.3409090909090909
tp580
a(VDulhe Raja
p581
F0.3409090909090909
tp582
a(VDilwale Dulhania Le Jayenge
p583
F0.3409090909090909
tp584
a(VDil Chahta Hai
p585
F0.3409090909090909
tp586
a(VDil
p587
F0.3409090909090909
tp588
a(VDe Taali
p589
F0.3409090909090909
tp590
a(VDe Dana Dan
p591
F0.3409090909090909
tp592
a(VDabangg
p593
F0.3409090909090909
tp594
a(VCheeni Kum
p595
F0.3409090909090909
tp596
a(VBalle Balle Amritsar To L.A.
p597
F0.3409090909090909
tp598
a(VBorder
p599
F0.3409090909090909
tp600
a(VBird Idol
p601
F0.3409090909090909
tp602
a(VBhoot
p603
F0.3409090909090909
tp604
a(VBhavnao Ko Samjho
p605
F0.3409090909090909
tp606
a(VBade Miyan Chote Miyan
p607
F0.3409090909090909
tp608
a(VApartment
p609
F0.3409090909090909
tp610
a(VAndaz Apna Apna
p611
F0.3409090909090909
tp612
a(VAjab Prem Ki Ghazab Kahani
p613
F0.3409090909090909
tp614
a(VYeh Dil
p615
F0.3181818181818182
tp616
a(VYeh Sunday Kyun Aata Hai
p617
F0.3181818181818182
tp618
a(VWoodstock Villa
p619
F0.3181818181818182
tp620
a(VVaade Iraade
p621
F0.3181818181818182
tp622
a(VVictory
p623
F0.3181818181818182
tp624
a(VUdaan
p625
F0.3181818181818182
tp626
a(VUnns
p627
F0.3181818181818182
tp628
a(VUmrao Jaan
p629
F0.3181818181818182
tp630
a(VU Me Aur Hum
p631
F0.3181818181818182
tp632
a(VShortkut - The Con Is On
p633
F0.3181818181818182
tp634
a(VSaudagar
p635
F0.3181818181818182
tp636
a(VSaajan Chale Sasural
p637
F0.3181818181818182
tp638
a(VRama Rama Kya Hai Drama
p639
F0.3181818181818182
tp640
a(VRobot
p641
F0.3181818181818182
tp642
a(VQatil
p643
F0.3181818181818182
tp644
a(VQahar
p645
F0.3181818181818182
tp646
a(VPhir Bhi Dil Hai Hindustani
p647
F0.3181818181818182
tp648
a(VPyar Kiya To Darna Kya
p649
F0.3181818181818182
tp650
a(VPhaans: Ek Jasoos Ki Kahani
p651
F0.3181818181818182
tp652
a(VOne Two Three
p653
F0.3181818181818182
tp654
a(VOmkara
p655
F0.3181818181818182
tp656
a(VNayee Padosan
p657
F0.3181818181818182
tp658
a(VNa Ghar Ke Na Ghaat Ke
p659
F0.3181818181818182
tp660
a(VMunna Bhai M.B.B.S.
p661
F0.3181818181818182
tp662
a(VMohandas
p663
F0.3181818181818182
tp664
a(VLaawaris
p665
F0.3181818181818182
tp666
a(VLove Story 2050
p667
F0.3181818181818182
tp668
a(VLife Partner
p669
F0.3181818181818182
tp670
a(VKick
p671
F0.3181818181818182
tp672
a(VJodi No.1
p673
F0.3181818181818182
tp674
a(VJalwa
p675
F0.3181818181818182
tp676
a(VJhankaar Beats
p677
F0.3181818181818182
tp678
a(VIqraar By Chance
p679
F0.3181818181818182
tp680
a(VInteha
p681
F0.3181818181818182
tp682
a(VI Hate Luv Storys
p683
F0.3181818181818182
tp684
a(VHadh Kar Di Aapne
p685
F0.3181818181818182
tp686
a(VHum Hain Rahi Pyar Ke
p687
F0.3181818181818182
tp688
a(VHorn Ok Pleassss
p689
F0.3181818181818182
tp690
a(VGood Boy, Bad Boy
p691
F0.3181818181818182
tp692
a(VGo
p693
F0.3181818181818182
tp694
a(VFamily - Ties Of Blood
p695
F0.3181818181818182
tp696
a(VFast Forward
p697
F0.3181818181818182
tp698
a(VEk Se Bure Do
p699
F0.3181818181818182
tp700
a(VEklavya - The Royal Guard
p701
F0.3181818181818182
tp702
a(VDuplicate
p703
F0.3181818181818182
tp704
a(VDulha Mil Gaya
p705
F0.3181818181818182
tp706
a(VDostana
p707
F0.3181818181818182
tp708
a(VDhadkan
p709
F0.3181818181818182
tp710
a(VDeewana
p711
F0.3181818181818182
tp712
a(VDabangg 2
p713
F0.3181818181818182
tp714
a(VChal Chala Chal
p715
F0.3181818181818182
tp716
a(VCorporate
p717
F0.3181818181818182
tp718
a(VCoolie No. 1
p719
F0.3181818181818182
tp720
a(VCompany
p721
F0.3181818181818182
tp722
a(VChintu Ji
p723
F0.3181818181818182
tp724
a(VChase
p725
F0.3181818181818182
tp726
a(VChak De! India
p727
F0.3181818181818182
tp728
a(VBlue
p729
F0.3181818181818182
tp730
a(VAakhari Decision
p731
F0.3181818181818182
tp732
a(VZakhmi Dil
p733
F0.29545454545454547
tp734
a(VZakhm
p735
F0.29545454545454547
tp736
a(VYuva
p737
F0.29545454545454547
tp738
a(VXcuse Me!
p739
F0.29545454545454547
tp740
a(VWohh Tera Naam Tha
p741
F0.29545454545454547
tp742
a(VWajahh - A Reason To Kill
p743
F0.29545454545454547
tp744
a(VWater
p745
F0.29545454545454547
tp746
a(VViruddh...Family Comes First
p747
F0.29545454545454547
tp748
a(VVirasat
p749
F0.29545454545454547
tp750
a(VTeam - The Force
p751
F0.29545454545454547
tp752
a(VToonpur Ka Superrhero
p753
F0.29545454545454547
tp754
a(VSon Of Sardaar
p755
F0.29545454545454547
tp756
a(VShahenshah
p757
F0.29545454545454547
tp758
a(VSarkar
p759
F0.29545454545454547
tp760
a(VRaja
p761
F0.29545454545454547
tp762
a(VRuslaan
p763
F0.29545454545454547
tp764
a(VPower
p765
F0.29545454545454547
tp766
a(VPhool Aur Kaante
p767
F0.29545454545454547
tp768
a(VPhhir
p769
F0.29545454545454547
tp770
a(VPangaa Gang
p771
F0.29545454545454547
tp772
a(VPaathshaala
p773
F0.29545454545454547
tp774
a(VPaa
p775
F0.29545454545454547
tp776
a(VOne Fine Monday
p777
F0.29545454545454547
tp778
a(VOnce Upon A Time In Mumbaai
p779
F0.29545454545454547
tp780
a(VNamkeen
p781
F0.29545454545454547
tp782
a(VNo Smoking
p783
F0.29545454545454547
tp784
a(VNastik
p785
F0.29545454545454547
tp786
a(VNew York
p787
F0.29545454545454547
tp788
a(VMr. India
p789
F0.29545454545454547
tp790
a(VMain Aurr Mrs Khanna
p791
F0.29545454545454547
tp792
a(VLife In A... Metro
p793
F0.29545454545454547
tp794
a(VKrrish 2
p795
F0.29545454545454547
tp796
a(VKnock Out
p797
F0.29545454545454547
tp798
a(VKisse Pyaar Karoon
p799
F0.29545454545454547
tp800
a(VKhosla Ka Ghosla
p801
F0.29545454545454547
tp802
a(VKhoon Bhari Maang
p803
F0.29545454545454547
tp804
a(VKhichdi The Movie
p805
F0.29545454545454547
tp806
a(VKaran Arjun
p807
F0.29545454545454547
tp808
a(VKabhi Haan Kabhi Naa
p809
F0.29545454545454547
tp810
a(VJugaad
p811
F0.29545454545454547
tp812
a(VJhootha Hi Sahi
p813
F0.29545454545454547
tp814
a(VI Proud To Be An Indian
p815
F0.29545454545454547
tp816
a(VI See U
p817
F0.29545454545454547
tp818
a(VHum Saath Saath Hain
p819
F0.29545454545454547
tp820
a(VHum Dil De Chuke Sanam
p821
F0.29545454545454547
tp822
a(VGood Luck
p823
F0.29545454545454547
tp824
a(VGhulam
p825
F0.29545454545454547
tp826
a(VGhatothkach
p827
F0.29545454545454547
tp828
a(VGardish
p829
F0.29545454545454547
tp830
a(VGhayal
p831
F0.29545454545454547
tp832
a(VGhajini
p833
F0.29545454545454547
tp834
a(VFriends Forever
p835
F0.29545454545454547
tp836
a(VFerrari Ki Sawaari
p837
F0.29545454545454547
tp838
a(VEik Dasttak
p839
F0.29545454545454547
tp840
a(VEk Tha Tiger
p841
F0.29545454545454547
tp842
a(VDil Se
p843
F0.29545454545454547
tp844
a(VDeewana Mastana
p845
F0.29545454545454547
tp846
a(VChameli
p847
F0.29545454545454547
tp848
a(VChaar Din Ki Chandni
p849
F0.29545454545454547
tp850
a(VBeta
p851
F0.29545454545454547
tp852
a(VBachna Ae Haseeno
p853
F0.29545454545454547
tp854
a(VAgni Sakshi
p855
F0.29545454545454547
tp856
a(VAankhen
p857
F0.29545454545454547
tp858
a(VAakrosh
p859
F0.29545454545454547
tp860
a(VAa Ab Laut Chalen
p861
F0.29545454545454547
tp862
a(VZakhmi Sher
p863
F0.2727272727272727
tp864
a(VZor Laga Ke... Haiya
p865
F0.2727272727272727
tp866
a(VZindaggi Rocks
p867
F0.2727272727272727
tp868
a(VYeh Dooriyan
p869
F0.2727272727272727
tp870
a(VYamla Pagla Deewana
p871
F0.2727272727272727
tp872
a(VYeh Zindagi Ka Safar
p873
F0.2727272727272727
tp874
a(VYeh Jo Mohabbat Hai
p875
F0.2727272727272727
tp876
a(VWho's There ...?
p877
F0.2727272727272727
tp878
a(VWith Luv Tumhara
p879
F0.2727272727272727
tp880
a(VVicky Donor
p881
F0.2727272727272727
tp882
a(VUmar 55 Ki Dil Bachpan Ka
p883
F0.2727272727272727
tp884
a(VUljhan
p885
F0.2727272727272727
tp886
a(VToh Baat Pakki!
p887
F0.2727272727272727
tp888
a(VTezz
p889
F0.2727272727272727
tp890
a(VSarkar Raj
p891
F0.2727272727272727
tp892
a(VRamayana - The Epic
p893
F0.2727272727272727
tp894
a(VRaju Chacha
p895
F0.2727272727272727
tp896
a(VRoad To Sangam
p897
F0.2727272727272727
tp898
a(VRang De Basanti
p899
F0.2727272727272727
tp900
a(VRaju Ban Gaya Gentleman
p901
F0.2727272727272727
tp902
a(VRab Ne Bana Di Jodi
p903
F0.2727272727272727
tp904
a(VQueens Destiny of Dance
p905
F0.2727272727272727
tp906
a(VPhir Kabhi
p907
F0.2727272727272727
tp908
a(VPyaar Impossible
p909
F0.2727272727272727
tp910
a(VOfficer
p911
F0.2727272727272727
tp912
a(VNaach
p913
F0.2727272727272727
tp914
a(VNishabd
p915
F0.2727272727272727
tp916
a(VNaqaab
p917
F0.2727272727272727
tp918
a(VNaam
p919
F0.2727272727272727
tp920
a(VMurder
p921
F0.2727272727272727
tp922
a(VMittal v/s Mittal
p923
F0.2727272727272727
tp924
a(VMallika
p925
F0.2727272727272727
tp926
a(VMaan Gaye Mughall-E-Azam
p927
F0.2727272727272727
tp928
a(VMaalik Ek
p929
F0.2727272727272727
tp930
a(VLove Aaj Kal
p931
F0.2727272727272727
tp932
a(VLage Raho Munna Bhai
p933
F0.2727272727272727
tp934
a(VKrrish
p935
F0.2727272727272727
tp936
a(VKarthik Calling Karthik
p937
F0.2727272727272727
tp938
a(VJoshilaay
p939
F0.2727272727272727
tp940
a(VJo Bole So Nihaal
p941
F0.2727272727272727
tp942
a(VJawani Diwani- A Youthful Ride
p943
F0.2727272727272727
tp944
a(VIcy N Spicy
p945
F0.2727272727272727
tp946
a(VHamara Dil Aapke Paas Hai
p947
F0.2727272727272727
tp948
a(VHappy New Year
p949
F0.2727272727272727
tp950
a(VGadar - Ek Prem Katha
p951
F0.2727272727272727
tp952
a(VFilhaal
p953
F0.2727272727272727
tp954
a(VFox
p955
F0.2727272727272727
tp956
a(VEight Shani
p957
F0.2727272727272727
tp958
a(VDrona
p959
F0.2727272727272727
tp960
a(VDil To Pagal Hai
p961
F0.2727272727272727
tp962
a(VCash
p963
F0.2727272727272727
tp964
a(VBanda Yeh Bindaas Hai
p965
F0.2727272727272727
tp966
a(VBand Baaja Baaraat
p967
F0.2727272727272727
tp968
a(VBluffmaster!
p969
F0.2727272727272727
tp970
a(VBadmaash Company
p971
F0.2727272727272727
tp972
a(VAllah Ke Banday
p973
F0.2727272727272727
tp974
a(VAll The Best : Fun Begins
p975
F0.2727272727272727
tp976
a(VAasma
p977
F0.2727272727272727
tp978
a(VAashiqui
p979
F0.2727272727272727
tp980
a(VYeshwant
p981
F0.25
tp982
a(VWajood
p983
F0.25
tp984
a(VWaaris
p985
F0.25
tp986
a(VWoh
p987
F0.25
tp988
a(VWell Done Abba
p989
F0.25
tp990
a(VVijay
p991
F0.25
tp992
a(VVia Darjeeling
p993
F0.25
tp994
a(VUnited Six
p995
F0.25
tp996
a(VUgly Aur Pagli
p997
F0.25
tp998
a(VThree - Love, Lies and Betrayal
p999
F0.25
tp1000
a(VThoda Pyaar Thoda Magic
p1001
F0.25
tp1002
a(VThanks Maa
p1003
F0.25
tp1004
a(VRed Alert - The War Within
p1005
F0.25
tp1006
a(VRaaz - The Mystery Continues
p1007
F0.25
tp1008
a(VQaidi
p1009
F0.25
tp1010
a(VQayamat Se Qayamat Tak
p1011
F0.25
tp1012
a(VPapa Kahte Hain
p1013
F0.25
tp1014
a(VPyaar Ke Side/Effects
p1015
F0.25
tp1016
a(VPyaar Kaa Fundaa
p1017
F0.25
tp1018
a(VPardes
p1019
F0.25
tp1020
a(VPankh
p1021
F0.25
tp1022
a(VOh Darling Yeh Ha India
p1023
F0.25
tp1024
a(VOvertime
p1025
F0.25
tp1026
a(VNazar
p1027
F0.25
tp1028
a(VNaam Gum Jaayega
p1029
F0.25
tp1030
a(VNaseeb
p1031
F0.25
tp1032
a(VMr. Fraud
p1033
F0.25
tp1034
a(VLove Khichdi
p1035
F0.25
tp1036
a(VKisaan
p1037
F0.25
tp1038
a(VKhuda Gawah
p1039
F0.25
tp1040
a(VJimmy
p1041
F0.25
tp1042
a(VJab Pyar Kisi Se Hota Hai
p1043
F0.25
tp1044
a(VJohnny Gaddaar
p1045
F0.25
tp1046
a(VIshq Ho Gaya Mamu
p1047
F0.25
tp1048
a(VInteqam -The Perfect Game
p1049
F0.25
tp1050
a(VIndra The Tiger
p1051
F0.25
tp1052
a(VIshqiya
p1053
F0.25
tp1054
a(VHum
p1055
F0.25
tp1056
a(VHeroine
p1057
F0.25
tp1058
a(VGodmother
p1059
F0.25
tp1060
a(VGhar
p1061
F0.25
tp1062
a(VGali Gali Chor Hai
p1063
F0.25
tp1064
a(VGangster
p1065
F0.25
tp1066
a(VFakira
p1067
F0.25
tp1068
a(VEk Chalis Ki Last Local
p1069
F0.25
tp1070
a(VEk - The Power Of One
p1071
F0.25
tp1072
a(VEeshwar
p1073
F0.25
tp1074
a(VEk Vivaah Aisa Bhi
p1075
F0.25
tp1076
a(VDacait
p1077
F0.25
tp1078
a(VDo Dooni Chaar
p1079
F0.25
tp1080
a(VDil Hai Ki Manta Nahin
p1081
F0.25
tp1082
a(VDarr
p1083
F0.25
tp1084
a(VChhodon Naa Yaar
p1085
F0.25
tp1086
a(VCheenti Cheenti Bang Bang
p1087
F0.25
tp1088
a(VCrook
p1089
F0.25
tp1090
a(VChandni
p1091
F0.25
tp1092
a(VChalte Chalte
p1093
F0.25
tp1094
a(VBaazi
p1095
F0.25
tp1096
a(VBolo Raam
p1097
F0.25
tp1098
a(VBbuddah - Hoga Terra Baap
p1099
F0.25
tp1100
a(VBaabarr
p1101
F0.25
tp1102
a(VAisha
p1103
F0.25
tp1104
a(VAdmissions Open
p1105
F0.25
tp1106
a(VAa Dekhen Zara
p1107
F0.25
tp1108
a(VA Wednesday
p1109
F0.25
tp1110
a(VZaalim
p1111
F0.22727272727272727
tp1112
a(VZahreela
p1113
F0.22727272727272727
tp1114
a(VZeher - A Love Story
p1115
F0.22727272727272727
tp1116
a(VYeh Kya Ho Raha Hai?
p1117
F0.22727272727272727
tp1118
a(VYeh Khula Aasmaan
p1119
F0.22727272727272727
tp1120
a(VYaadon Ki Baaraat
p1121
F0.22727272727272727
tp1122
a(VWrong Number
p1123
F0.22727272727272727
tp1124
a(VWoh Lamhe
p1125
F0.22727272727272727
tp1126
a(VVikalp
p1127
F0.22727272727272727
tp1128
a(VVishwasghat
p1129
F0.22727272727272727
tp1130
a(VVidhata Tere Khel Hai Nirale
p1131
F0.22727272727272727
tp1132
a(VVivah
p1133
F0.22727272727272727
tp1134
a(VUtt Pataang
p1135
F0.22727272727272727
tp1136
a(VTathastu
p1137
F0.22727272727272727
tp1138
a(VTezaab
p1139
F0.22727272727272727
tp1140
a(VTere Bin Laden
p1141
F0.22727272727272727
tp1142
a(VTalaash
p1143
F0.22727272727272727
tp1144
a(VStanley Ka Dabba
p1145
F0.22727272727272727
tp1146
a(VSorry Bhai
p1147
F0.22727272727272727
tp1148
a(VSingh Is Kinng
p1149
F0.22727272727272727
tp1150
a(VShool
p1151
F0.22727272727272727
tp1152
a(VRama - The Saviour
p1153
F0.22727272727272727
tp1154
a(VRaaz 3
p1155
F0.22727272727272727
tp1156
a(VRokkk
p1157
F0.22727272727272727
tp1158
a(VRock On
p1159
F0.22727272727272727
tp1160
a(VRadio
p1161
F0.22727272727272727
tp1162
a(VNakshatra
p1163
F0.22727272727272727
tp1164
a(VMahaan
p1165
F0.22727272727272727
tp1166
a(VMumbai 118
p1167
F0.22727272727272727
tp1168
a(VMeerabai Not Out
p1169
F0.22727272727272727
tp1170
a(VMain Azaad Hoon
p1171
F0.22727272727272727
tp1172
a(VLoins Of Punjab Presents
p1173
F0.22727272727272727
tp1174
a(VLuck
p1175
F0.22727272727272727
tp1176
a(VLondon Dreams
p1177
F0.22727272727272727
tp1178
a(VKarz
p1179
F0.22727272727272727
tp1180
a(VJannat
p1181
F0.22727272727272727
tp1182
a(VIshaqzaade
p1183
F0.22727272727272727
tp1184
a(VHello Hum Lallan Bol Rahe Hain
p1185
F0.22727272727272727
tp1186
a(VGangaajal
p1187
F0.22727272727272727
tp1188
a(VGol Maal
p1189
F0.22727272727272727
tp1190
a(VGame
p1191
F0.22727272727272727
tp1192
a(VDon
p1193
F0.22727272727272727
tp1194
a(VDasvidaniya
p1195
F0.22727272727272727
tp1196
a(VChhoti Si Baat
p1197
F0.22727272727272727
tp1198
a(VChandni Chowk To China
p1199
F0.22727272727272727
tp1200
a(VBombay
p1201
F0.22727272727272727
tp1202
a(VBheja Fry
p1203
F0.22727272727272727
tp1204
a(VBad Luck Govind
p1205
F0.22727272727272727
tp1206
a(VZakhmi Aurat
p1207
F0.20454545454545456
tp1208
a(VZabardast
p1209
F0.20454545454545456
tp1210
a(VYahaan
p1211
F0.20454545454545456
tp1212
a(VWafadaar
p1213
F0.20454545454545456
tp1214
a(VWake Up Sid
p1215
F0.20454545454545456
tp1216
a(VVighnaharta... Shree Siddhivinayak
p1217
F0.20454545454545456
tp1218
a(VVirsa
p1219
F0.20454545454545456
tp1220
a(VU, Bomsi n Me
p1221
F0.20454545454545456
tp1222
a(VUtsav
p1223
F0.20454545454545456
tp1224
a(VTera Kya Hoga Johny
p1225
F0.20454545454545456
tp1226
a(VThe Stoneman Murders
p1227
F0.20454545454545456
tp1228
a(VThe Last Lear
p1229
F0.20454545454545456
tp1230
a(VThe Film Emotional Atyachar
p1231
F0.20454545454545456
tp1232
a(VThe Camp
p1233
F0.20454545454545456
tp1234
a(VSholay
p1235
F0.20454545454545456
tp1236
a(VShahrukh Bola Khoobsurat Hai Tu
p1237
F0.20454545454545456
tp1238
a(VShaabash! You Can Do It
p1239
F0.20454545454545456
tp1240
a(VSaaransh
p1241
F0.20454545454545456
tp1242
a(VRam Lakhan
p1243
F0.20454545454545456
tp1244
a(VRakht Charitra - I
p1245
F0.20454545454545456
tp1246
a(VQurbani Rang Layegi
p1247
F0.20454545454545456
tp1248
a(VQayamat
p1249
F0.20454545454545456
tp1250
a(VQurbani
p1251
F0.20454545454545456
tp1252
a(VPlayers
p1253
F0.20454545454545456
tp1254
a(VOldd Iss Goldd
p1255
F0.20454545454545456
tp1256
a(VMohabbatein
p1257
F0.20454545454545456
tp1258
a(VMaqbool
p1259
F0.20454545454545456
tp1260
a(VMaachis
p1261
F0.20454545454545456
tp1262
a(VLet's Dance
p1263
F0.20454545454545456
tp1264
a(VLekin
p1265
F0.20454545454545456
tp1266
a(VLahore
p1267
F0.20454545454545456
tp1268
a(VKites
p1269
F0.20454545454545456
tp1270
a(VKhelein Hum Jee Jaan Sey
p1271
F0.20454545454545456
tp1272
a(VKhal Nayak
p1273
F0.20454545454545456
tp1274
a(VIshq Qayamat
p1275
F0.20454545454545456
tp1276
a(VIt's My Life
p1277
F0.20454545454545456
tp1278
a(VHum Aapke Hai Kaun
p1279
F0.20454545454545456
tp1280
a(VHu Tu Tu
p1281
F0.20454545454545456
tp1282
a(VHeroes
p1283
F0.20454545454545456
tp1284
a(VHelp
p1285
F0.20454545454545456
tp1286
a(VHate Story
p1287
F0.20454545454545456
tp1288
a(VGuddi
p1289
F0.20454545454545456
tp1290
a(VGreat Daddu
p1291
F0.20454545454545456
tp1292
a(VFatso
p1293
F0.20454545454545456
tp1294
a(VEk Aur Khal Nayak
p1295
F0.20454545454545456
tp1296
a(VDor
p1297
F0.20454545454545456
tp1298
a(VChai Garam
p1299
F0.20454545454545456
tp1300
a(VCocktail
p1301
F0.20454545454545456
tp1302
a(VCity Of Gold
p1303
F0.20454545454545456
tp1304
a(VChamki Chameli
p1305
F0.20454545454545456
tp1306
a(VArth
p1307
F0.20454545454545456
tp1308
a(VAngoor
p1309
F0.20454545454545456
tp1310
a(VAasman
p1311
F0.20454545454545456
tp1312
a(VAagey Se Right
p1313
F0.20454545454545456
tp1314
a(VZindagi Khoobsoorat Hai
p1315
F0.18181818181818182
tp1316
a(VZiddi Padosan
p1317
F0.18181818181818182
tp1318
a(VZilla Ghaziabad
p1319
F0.18181818181818182
tp1320
a(VYaraana
p1321
F0.18181818181818182
tp1322
a(VYahan Ke Hum Sikander
p1323
F0.18181818181818182
tp1324
a(VY.M.I. - Yeh Mera India
p1325
F0.18181818181818182
tp1326
a(VWatan Ke Rakhwale
p1327
F0.18181818181818182
tp1328
a(Vwww.love.com
p1329
F0.18181818181818182
tp1330
a(VVakil Baboo
p1331
F0.18181818181818182
tp1332
a(VVijeta
p1333
F0.18181818181818182
tp1334
a(VVaada Raha... I Promise
p1335
F0.18181818181818182
tp1336
a(VUljhan
p1337
F0.18181818181818182
tp1338
a(VThe Great Indian Butterfly
p1339
F0.18181818181818182
tp1340
a(VSilsila
p1341
F0.18181818181818182
tp1342
a(VSharaabi
p1343
F0.18181818181818182
tp1344
a(VRoti
p1345
F0.18181818181818182
tp1346
a(VRoad, Movie
p1347
F0.18181818181818182
tp1348
a(VRace 2
p1349
F0.18181818181818182
tp1350
a(VPati Patni Aur Woh
p1351
F0.18181818181818182
tp1352
a(VPaan Singh Tomar
p1353
F0.18181818181818182
tp1354
a(VPhoonk 2
p1355
F0.18181818181818182
tp1356
a(VPeepli Live
p1357
F0.18181818181818182
tp1358
a(VNishant
p1359
F0.18181818181818182
tp1360
a(VNeal 'N' Nikki
p1361
F0.18181818181818182
tp1362
a(VNamak Haraam
p1363
F0.18181818181818182
tp1364
a(VNa Tum Jaano Na Hum
p1365
F0.18181818181818182
tp1366
a(VMy Friend Ganesha 3
p1367
F0.18181818181818182
tp1368
a(VMrityudand
p1369
F0.18181818181818182
tp1370
a(VLakhon Ki Baat
p1371
F0.18181818181818182
tp1372
a(VKhamoshi The Musical
p1373
F0.18181818181818182
tp1374
a(VKarma
p1375
F0.18181818181818182
tp1376
a(VKahaani
p1377
F0.18181818181818182
tp1378
a(VJawab
p1379
F0.18181818181818182
tp1380
a(VJumbo
p1381
F0.18181818181818182
tp1382
a(VJism 2
p1383
F0.18181818181818182
tp1384
a(VIzzat
p1385
F0.18181818181818182
tp1386
a(VIjaazat
p1387
F0.18181818181818182
tp1388
a(VGhayal Returns
p1389
F0.18181818181818182
tp1390
a(VGeraftaar
p1391
F0.18181818181818182
tp1392
a(VGandhi, My Father
p1393
F0.18181818181818182
tp1394
a(VFamilywala
p1395
F0.18181818181818182
tp1396
a(VFashion
p1397
F0.18181818181818182
tp1398
a(VEkk Deewana Tha
p1399
F0.18181818181818182
tp1400
a(VEk Pal
p1401
F0.18181818181818182
tp1402
a(VEverybody Wants To Be Famous
p1403
F0.18181818181818182
tp1404
a(VDostana 2
p1405
F0.18181818181818182
tp1406
a(VDhoondte Reh Jaaoge
p1407
F0.18181818181818182
tp1408
a(VChaalis Chauraasi
p1409
F0.18181818181818182
tp1410
a(VContract
p1411
F0.18181818181818182
tp1412
a(VChupke Chupke
p1413
F0.18181818181818182
tp1414
a(VChachi 420
p1415
F0.18181818181818182
tp1416
a(VBaharon Ke Sapne
p1417
F0.18181818181818182
tp1418
a(VBlack
p1419
F0.18181818181818182
tp1420
a(VAloo Chaat
p1421
F0.18181818181818182
tp1422
a(VAcid Factory
p1423
F0.18181818181818182
tp1424
a(VAamras
p1425
F0.18181818181818182
tp1426
a(VZalim
p1427
F0.1590909090909091
tp1428
a(VZakhmi Sipahi
p1429
F0.1590909090909091
tp1430
a(VZindagi Na Milegi Dobara
p1431
F0.1590909090909091
tp1432
a(VZanjeer
p1433
F0.1590909090909091
tp1434
a(VYeh Faasley
p1435
F0.1590909090909091
tp1436
a(VYakeen
p1437
F0.1590909090909091
tp1438
a(VYou Know Amrapali
p1439
F0.1590909090909091
tp1440
a(VWaris
p1441
F0.1590909090909091
tp1442
a(VWoh 7 Din
p1443
F0.1590909090909091
tp1444
a(VWarrant
p1445
F0.1590909090909091
tp1446
a(VVallah Kya Baat Hai
p1447
F0.1590909090909091
tp1448
a(VVoice From The Sky
p1449
F0.1590909090909091
tp1450
a(VVroom
p1451
F0.1590909090909091
tp1452
a(VVishwaroopam
p1453
F0.1590909090909091
tp1454
a(VUs Paar
p1455
F0.1590909090909091
tp1456
a(VUff! Yeh Mohabbat
p1457
F0.1590909090909091
tp1458
a(VUmrao Jaan
p1459
F0.1590909090909091
tp1460
a(VUdaan
p1461
F0.1590909090909091
tp1462
a(VTeesri Kasam
p1463
F0.1590909090909091
tp1464
a(VTum Mile
p1465
F0.1590909090909091
tp1466
a(VToss
p1467
F0.1590909090909091
tp1468
a(VThe Waiting Room
p1469
F0.1590909090909091
tp1470
a(VThe Legend Of Kunal
p1471
F0.1590909090909091
tp1472
a(VShanghai
p1473
F0.1590909090909091
tp1474
a(VSatte Pe Satta
p1475
F0.1590909090909091
tp1476
a(VSapno Ke Desh Mein
p1477
F0.1590909090909091
tp1478
a(VRaja Rani
p1479
F0.1590909090909091
tp1480
a(VParwana
p1481
F0.1590909090909091
tp1482
a(VPanga Naa Lo
p1483
F0.1590909090909091
tp1484
a(VOye Lucky! Lucky Oye!
p1485
F0.1590909090909091
tp1486
a(VNeel Kamal
p1487
F0.1590909090909091
tp1488
a(VNidar - The Fearless
p1489
F0.1590909090909091
tp1490
a(VMithya
p1491
F0.1590909090909091
tp1492
a(VMission 11 July
p1493
F0.1590909090909091
tp1494
a(VMera Naam Joker
p1495
F0.1590909090909091
tp1496
a(VMaine Pyar Kiya
p1497
F0.1590909090909091
tp1498
a(VLife Ki Toh Lag Gayi
p1499
F0.1590909090909091
tp1500
a(VLet's Enjoy
p1501
F0.1590909090909091
tp1502
a(VLeader
p1503
F0.1590909090909091
tp1504
a(VLahu Ke Do Rang
p1505
F0.1590909090909091
tp1506
a(VLove Story
p1507
F0.1590909090909091
tp1508
a(VLondon, Paris, New York
p1509
F0.1590909090909091
tp1510
a(VLamhe
p1511
F0.1590909090909091
tp1512
a(VLafangey Parindey
p1513
F0.1590909090909091
tp1514
a(VKismat Talkies
p1515
F0.1590909090909091
tp1516
a(VKhote Sikkey
p1517
F0.1590909090909091
tp1518
a(VKaante 2
p1519
F0.1590909090909091
tp1520
a(VKaagaz Ke Phool
p1521
F0.1590909090909091
tp1522
a(VJulie
p1523
F0.1590909090909091
tp1524
a(VJhuk Gaya Aasman
p1525
F0.1590909090909091
tp1526
a(VJhanak Jhanak Payal Baje
p1527
F0.1590909090909091
tp1528
a(VJannat 2
p1529
F0.1590909090909091
tp1530
a(VJaane Tu...Ya Jaane Na
p1531
F0.1590909090909091
tp1532
a(VInsaan
p1533
F0.1590909090909091
tp1534
a(VInkaar
p1535
F0.1590909090909091
tp1536
a(VInsaaf Ka Tarazu
p1537
F0.1590909090909091
tp1538
a(VHanuman Returns
p1539
F0.1590909090909091
tp1540
a(VHum Kisise Kum Nahi
p1541
F0.1590909090909091
tp1542
a(VHook Ya Crook
p1543
F0.1590909090909091
tp1544
a(VHello Zindagi
p1545
F0.1590909090909091
tp1546
a(VGarjann
p1547
F0.1590909090909091
tp1548
a(VFaasle
p1549
F0.1590909090909091
tp1550
a(VFauj Mein Mauj
p1551
F0.1590909090909091
tp1552
a(VFarz
p1553
F0.1590909090909091
tp1554
a(VEk Eh 2.0
p1555
F0.1590909090909091
tp1556
a(VEk Duje Ke Liye
p1557
F0.1590909090909091
tp1558
a(VDaag
p1559
F0.1590909090909091
tp1560
a(VChain Kulli Ki Main Kulii
p1561
F0.1590909090909091
tp1562
a(VChaalbaaz
p1563
F0.1590909090909091
tp1564
a(VBreak Ke Baad
p1565
F0.1590909090909091
tp1566
a(VAb Tak Chhappan
p1567
F0.1590909090909091
tp1568
a(VZakhmee
p1569
F0.13636363636363635
tp1570
a(VZahreelay
p1571
F0.13636363636363635
tp1572
a(VZarak Khan
p1573
F0.13636363636363635
tp1574
a(VZamaanat
p1575
F0.13636363636363635
tp1576
a(VZindagi
p1577
F0.13636363636363635
tp1578
a(VZiddi
p1579
F0.13636363636363635
tp1580
a(VYeh Kaisi Mohabbat
p1581
F0.13636363636363635
tp1582
a(VYeh Raaste Hai Pyar Ke
p1583
F0.13636363636363635
tp1584
a(VXXX
p1585
F0.13636363636363635
tp1586
a(VWahem
p1587
F0.13636363636363635
tp1588
a(VWaah! Tera Kya Kehna
p1589
F0.13636363636363635
tp1590
a(VWoh Kaun Thi
p1591
F0.13636363636363635
tp1592
a(VWaqt
p1593
F0.13636363636363635
tp1594
a(VVaasna
p1595
F0.13636363636363635
tp1596
a(VVidyaarthi
p1597
F0.13636363636363635
tp1598
a(VVivash
p1599
F0.13636363636363635
tp1600
a(VUmar Qaid
p1601
F0.13636363636363635
tp1602
a(VUlta Seedha
p1603
F0.13636363636363635
tp1604
a(VUdhar Ka Sindur
p1605
F0.13636363636363635
tp1606
a(VUpkar
p1607
F0.13636363636363635
tp1608
a(VTere Mere Sapne
p1609
F0.13636363636363635
tp1610
a(VTere Ghar Ke Samne
p1611
F0.13636363636363635
tp1612
a(VTeesri Manzil
p1613
F0.13636363636363635
tp1614
a(VTrishul
p1615
F0.13636363636363635
tp1616
a(VTahaan
p1617
F0.13636363636363635
tp1618
a(VSpanish Beauty (A Beautiful Wife)
p1619
F0.13636363636363635
tp1620
a(VSoch Lo
p1621
F0.13636363636363635
tp1622
a(VShootout At Wadala
p1623
F0.13636363636363635
tp1624
a(VShiva
p1625
F0.13636363636363635
tp1626
a(VSatte Pe Satta remake
p1627
F0.13636363636363635
tp1628
a(VSargam
p1629
F0.13636363636363635
tp1630
a(VRoadside Romeo
p1631
F0.13636363636363635
tp1632
a(VRagini MMS
p1633
F0.13636363636363635
tp1634
a(VQaid
p1635
F0.13636363636363635
tp1636
a(VPasand Apni Apni
p1637
F0.13636363636363635
tp1638
a(VParzania
p1639
F0.13636363636363635
tp1640
a(VParveen Bobby
p1641
F0.13636363636363635
tp1642
a(VPadosan
p1643
F0.13636363636363635
tp1644
a(VOonche Log
p1645
F0.13636363636363635
tp1646
a(VOonche Log
p1647
F0.13636363636363635
tp1648
a(VOonch Neech Beech
p1649
F0.13636363636363635
tp1650
a(VOomar Qaid
p1651
F0.13636363636363635
tp1652
a(VOct 2nd
p1653
F0.13636363636363635
tp1654
a(VNauker
p1655
F0.13636363636363635
tp1656
a(VNau Do Gyarah
p1657
F0.13636363636363635
tp1658
a(VNaina
p1659
F0.13636363636363635
tp1660
a(VNagina
p1661
F0.13636363636363635
tp1662
a(VNagin
p1663
F0.13636363636363635
tp1664
a(VNew Delhi Times
p1665
F0.13636363636363635
tp1666
a(VMadholal - Keep Walking
p1667
F0.13636363636363635
tp1668
a(VMumbai Meri Jaan
p1669
F0.13636363636363635
tp1670
a(VMonsoon Wedding
p1671
F0.13636363636363635
tp1672
a(VMadhumati
p1673
F0.13636363636363635
tp1674
a(VLaat Saheb
p1675
F0.13636363636363635
tp1676
a(VLaal Batti
p1677
F0.13636363636363635
tp1678
a(VLadies and Gentlemen
p1679
F0.13636363636363635
tp1680
a(VKoochie Koochie Hota Hai
p1681
F0.13636363636363635
tp1682
a(VKhiladi 786 - Made In Punjab
p1683
F0.13636363636363635
tp1684
a(VJis Desh Men Ganga Behti Hai
p1685
F0.13636363636363635
tp1686
a(VJewel Thief
p1687
F0.13636363636363635
tp1688
a(VJab Jab Fools Mile
p1689
F0.13636363636363635
tp1690
a(VInsaniyat
p1691
F0.13636363636363635
tp1692
a(VIt's Breaking News
p1693
F0.13636363636363635
tp1694
a(VI Love New Year
p1695
F0.13636363636363635
tp1696
a(VHappy Birthday
p1697
F0.13636363636363635
tp1698
a(VHanuman
p1699
F0.13636363636363635
tp1700
a(VGumnaam
p1701
F0.13636363636363635
tp1702
a(VGeng
p1703
F0.13636363636363635
tp1704
a(VGanga Jamuna Saraswati
p1705
F0.13636363636363635
tp1706
a(VGanga Jamuna
p1707
F0.13636363636363635
tp1708
a(VGullu Dada Returns
p1709
F0.13636363636363635
tp1710
a(VFuntoosh
p1711
F0.13636363636363635
tp1712
a(VFor Real
p1713
F0.13636363636363635
tp1714
a(VFaraar
p1715
F0.13636363636363635
tp1716
a(VEk Aur Visphot
p1717
F0.13636363636363635
tp1718
a(VEk Shriman Ek Shrimati
p1719
F0.13636363636363635
tp1720
a(VEk Hi Raasta
p1721
F0.13636363636363635
tp1722
a(VEk Alag Mausam
p1723
F0.13636363636363635
tp1724
a(VEk Tho Chance
p1725
F0.13636363636363635
tp1726
a(VEk Phool Do Mali
p1727
F0.13636363636363635
tp1728
a(VEk Hasina Thi
p1729
F0.13636363636363635
tp1730
a(VExclusion
p1731
F0.13636363636363635
tp1732
a(VDaayen Ya Baayen
p1733
F0.13636363636363635
tp1734
a(VChalti Ka Naam Gadi
p1735
F0.13636363636363635
tp1736
a(VCarry On Pandu
p1737
F0.13636363636363635
tp1738
a(VChandbhai
p1739
F0.13636363636363635
tp1740
a(VBaharen Phir Bhi Aayengi
p1741
F0.13636363636363635
tp1742
a(VBihaad
p1743
F0.13636363636363635
tp1744
a(VBal Hanuman 2
p1745
F0.13636363636363635
tp1746
a(VAndaz
p1747
F0.13636363636363635
tp1748
a(VAmar Akbar Anthony
p1749
F0.13636363636363635
tp1750
a(VYeh Raat Phir Na Aayegi
p1751
F0.11363636363636363
tp1752
a(VYaarana
p1753
F0.11363636363636363
tp1754
a(VYaara O Yaara
p1755
F0.11363636363636363
tp1756
a(VYaara
p1757
F0.11363636363636363
tp1758
a(VWahan Ke Log
p1759
F0.11363636363636363
tp1760
a(VWounded
p1761
F0.11363636363636363
tp1762
a(VVaastu Shastra
p1763
F0.11363636363636363
tp1764
a(VUpaasna
p1765
F0.11363636363636363
tp1766
a(VUphaar
p1767
F0.11363636363636363
tp1768
a(VTime Machine
p1769
F0.11363636363636363
tp1770
a(VThe Man
p1771
F0.11363636363636363
tp1772
a(VShoebite
p1773
F0.11363636363636363
tp1774
a(VSankat City
p1775
F0.11363636363636363
tp1776
a(VRaftaar
p1777
F0.11363636363636363
tp1778
a(VRafoo Chakkar-Fun On The Run
p1779
F0.11363636363636363
tp1780
a(VRoja
p1781
F0.11363636363636363
tp1782
a(VRocket Singh - Salesman Of The Year
p1783
F0.11363636363636363
tp1784
a(VRock On 2
p1785
F0.11363636363636363
tp1786
a(VRaat Gayi Baat Gayi
p1787
F0.11363636363636363
tp1788
a(VQatil
p1789
F0.11363636363636363
tp1790
a(VQatil-E-Aam
p1791
F0.11363636363636363
tp1792
a(VQuick Gun Murugun
p1793
F0.11363636363636363
tp1794
a(VPartner 2
p1795
F0.11363636363636363
tp1796
a(VOh My God
p1797
F0.11363636363636363
tp1798
a(VNavrang
p1799
F0.11363636363636363
tp1800
a(VNaam
p1801
F0.11363636363636363
tp1802
a(VMunnabhai Chale Amerika
p1803
F0.11363636363636363
tp1804
a(VMother: The Indira Gandhi Story
p1805
F0.11363636363636363
tp1806
a(VMaharathi
p1807
F0.11363636363636363
tp1808
a(VLove Ka Tadka
p1809
F0.11363636363636363
tp1810
a(VKanchana Remake
p1811
F0.11363636363636363
tp1812
a(VJodi Breakers
p1813
F0.11363636363636363
tp1814
a(VJail
p1815
F0.11363636363636363
tp1816
a(VJaane Bhi Do Yaaron
p1817
F0.11363636363636363
tp1818
a(VIshkq In Paris
p1819
F0.11363636363636363
tp1820
a(VInquilaab
p1821
F0.11363636363636363
tp1822
a(VI Am In Love
p1823
F0.11363636363636363
tp1824
a(VI AM
p1825
F0.11363636363636363
tp1826
a(VHaathi Mere Sathi
p1827
F0.11363636363636363
tp1828
a(VGautam Buddha
p1829
F0.11363636363636363
tp1830
a(VGabbar Singh
p1831
F0.11363636363636363
tp1832
a(VGulel
p1833
F0.11363636363636363
tp1834
a(VGuide
p1835
F0.11363636363636363
tp1836
a(VFun ...Can Be Dangerous Sometimes
p1837
F0.11363636363636363
tp1838
a(VFriendship
p1839
F0.11363636363636363
tp1840
a(VFeel The Love
p1841
F0.11363636363636363
tp1842
a(VFear
p1843
F0.11363636363636363
tp1844
a(VFantastic
p1845
F0.11363636363636363
tp1846
a(VFreedom
p1847
F0.11363636363636363
tp1848
a(VEk Musafir Ek Hasina
p1849
F0.11363636363636363
tp1850
a(VEk Din 24 Ghante
p1851
F0.11363636363636363
tp1852
a(VEk Dil Sau Afsane
p1853
F0.11363636363636363
tp1854
a(VEk Dastak
p1855
F0.11363636363636363
tp1856
a(VEk Main Aur Ekk Tu
p1857
F0.11363636363636363
tp1858
a(VDedh Ishqiya
p1859
F0.11363636363636363
tp1860
a(VDaddy Cool
p1861
F0.11363636363636363
tp1862
a(VChashme Buddoor
p1863
F0.11363636363636363
tp1864
a(VChashme Baddoor Remake
p1865
F0.11363636363636363
tp1866
a(VBhoot 2
p1867
F0.11363636363636363
tp1868
a(VApaharan
p1869
F0.11363636363636363
tp1870
a(VAnand
p1871
F0.11363636363636363
tp1872
a(VAap Ke Liye Hum
p1873
F0.11363636363636363
tp1874
a(VAankhen 2
p1875
F0.11363636363636363
tp1876
a(VYeh Pal Ho Na Ho... Kal
p1877
F0.09090909090909091
tp1878
a(VWe R Friends
p1879
F0.09090909090909091
tp1880
a(VWill You Marry Me?
p1881
F0.09090909090909091
tp1882
a(VValentine's Night 
p1883
F0.09090909090909091
tp1884
a(VVajra - The Weapon
p1885
F0.09090909090909091
tp1886
a(VUlfat Ki Nayi Manzilen
p1887
F0.09090909090909091
tp1888
a(VUjala
p1889
F0.09090909090909091
tp1890
a(VUdan Khatola
p1891
F0.09090909090909091
tp1892
a(VTeesri Manzil
p1893
F0.09090909090909091
tp1894
a(VThe Fakir Of Venice
p1895
F0.09090909090909091
tp1896
a(VTaalismaan
p1897
F0.09090909090909091
tp1898
a(VSatsang
p1899
F0.09090909090909091
tp1900
a(VSahib Biwi Ghulam
p1901
F0.09090909090909091
tp1902
a(VRaaz
p1903
F0.09090909090909091
tp1904
a(VRaakh
p1905
F0.09090909090909091
tp1906
a(VRana
p1907
F0.09090909090909091
tp1908
a(VQaidi
p1909
F0.09090909090909091
tp1910
a(VPhir Masti
p1911
F0.09090909090909091
tp1912
a(VPhillum City
p1913
F0.09090909090909091
tp1914
a(VPakeezah
p1915
F0.09090909090909091
tp1916
a(VOh Bewafaa
p1917
F0.09090909090909091
tp1918
a(VOsama
p1919
F0.09090909090909091
tp1920
a(VNight In London
p1921
F0.09090909090909091
tp1922
a(VNew Delhi
p1923
F0.09090909090909091
tp1924
a(VNikaah
p1925
F0.09090909090909091
tp1926
a(VNasoor
p1927
F0.09090909090909091
tp1928
a(VNo One Killed Jessica
p1929
F0.09090909090909091
tp1930
a(VMasters
p1931
F0.09090909090909091
tp1932
a(VLife Ise Gale Laga Le
p1933
F0.09090909090909091
tp1934
a(VLibaas
p1935
F0.09090909090909091
tp1936
a(VJai Ramji
p1937
F0.09090909090909091
tp1938
a(VJackpot
p1939
F0.09090909090909091
tp1940
a(VJohny Walker
p1941
F0.09090909090909091
tp1942
a(VJaane Kya Tune Kahi
p1943
F0.09090909090909091
tp1944
a(VInteqam
p1945
F0.09090909090909091
tp1946
a(VIs Pyaar Ko Kya Naam Doon
p1947
F0.09090909090909091
tp1948
a(VIn Aankhon Kaa Chakkar
p1949
F0.09090909090909091
tp1950
a(VI, Me Aur Main
p1951
F0.09090909090909091
tp1952
a(VI M 24
p1953
F0.09090909090909091
tp1954
a(VHaqeeqat
p1955
F0.09090909090909091
tp1956
a(VHalo
p1957
F0.09090909090909091
tp1958
a(VHalf Ticket
p1959
F0.09090909090909091
tp1960
a(VGuftagoo
p1961
F0.09090909090909091
tp1962
a(VGhulami
p1963
F0.09090909090909091
tp1964
a(VGangs Of Wasseypur
p1965
F0.09090909090909091
tp1966
a(VFilm Star
p1967
F0.09090909090909091
tp1968
a(VFruit & Nut
p1969
F0.09090909090909091
tp1970
a(VF.O.S.L.A. (Frustrated One-sided Lovers' Association)
p1971
F0.09090909090909091
tp1972
a(VFiraaq
p1973
F0.09090909090909091
tp1974
a(VEk Chhotisi Love Story
p1975
F0.09090909090909091
tp1976
a(VEk Bura Aadmi
p1977
F0.09090909090909091
tp1978
a(VExchange Offer
p1979
F0.09090909090909091
tp1980
a(VEnglish Vinglish
p1981
F0.09090909090909091
tp1982
a(VEk Thi Rani Aisi Bhi
p1983
F0.09090909090909091
tp1984
a(VDil Kabaddi
p1985
F0.09090909090909091
tp1986
a(VDharmatma
p1987
F0.09090909090909091
tp1988
a(VChenab Gandhi
p1989
F0.09090909090909091
tp1990
a(VChandni Bar
p1991
F0.09090909090909091
tp1992
a(VChalo Dilli
p1993
F0.09090909090909091
tp1994
a(VBhairavi
p1995
F0.09090909090909091
tp1996
a(VBarfi!
p1997
F0.09090909090909091
tp1998
a(VBajirao Mastani
p1999
F0.09090909090909091
tp2000
a(VAamir
p2001
F0.09090909090909091
tp2002
a(VZabak
p2003
F0.06818181818181818
tp2004
a(VZabardast
p2005
F0.06818181818181818
tp2006
a(VYahudi
p2007
F0.06818181818181818
tp2008
a(VYaadein
p2009
F0.06818181818181818
tp2010
a(VYeh Jawani Hai Deewani
p2011
F0.06818181818181818
tp2012
a(VWow
p2013
F0.06818181818181818
tp2014
a(VWelcome To The Jungle
p2015
F0.06818181818181818
tp2016
a(VUsne Kaha Tha
p2017
F0.06818181818181818
tp2018
a(VStraight
p2019
F0.06818181818181818
tp2020
a(VSpecial Chabbis
p2021
F0.06818181818181818
tp2022
a(VSargna
p2023
F0.06818181818181818
tp2024
a(VPhansi
p2025
F0.06818181818181818
tp2026
a(VPeter Gaya Kaam Se
p2027
F0.06818181818181818
tp2028
a(VParty
p2029
F0.06818181818181818
tp2030
a(VParakh
p2031
F0.06818181818181818
tp2032
a(VPhoonk
p2033
F0.06818181818181818
tp2034
a(VOpera House
p2035
F0.06818181818181818
tp2036
a(VOoparwala Jane
p2037
F0.06818181818181818
tp2038
a(VOn the Ramp
p2039
F0.06818181818181818
tp2040
a(VO Tera Kya Kehana
p2041
F0.06818181818181818
tp2042
a(VOops!
p2043
F0.06818181818181818
tp2044
a(VOMG - Oh My God
p2045
F0.06818181818181818
tp2046
a(VOh God Sare Hain Fraud
p2047
F0.06818181818181818
tp2048
a(VOnce Upon A Time Again
p2049
F0.06818181818181818
tp2050
a(VNaukri
p2051
F0.06818181818181818
tp2052
a(VNaseem
p2053
F0.06818181818181818
tp2054
a(VMughal-E-Azam
p2055
F0.06818181818181818
tp2056
a(VMasoom
p2057
F0.06818181818181818
tp2058
a(VLife of Pi
p2059
F0.06818181818181818
tp2060
a(VLovesongs
p2061
F0.06818181818181818
tp2062
a(VLajjo
p2063
F0.06818181818181818
tp2064
a(VKomagata Maru
p2065
F0.06818181818181818
tp2066
a(VKarma Aur Holi
p2067
F0.06818181818181818
tp2068
a(VJayanta Bhai
p2069
F0.06818181818181818
tp2070
a(VJal
p2071
F0.06818181818181818
tp2072
a(VJolly L.L.B.
p2073
F0.06818181818181818
tp2074
a(VIttefaq
p2075
F0.06818181818181818
tp2076
a(VHulla
p2077
F0.06818181818181818
tp2078
a(VHera Pheri 4
p2079
F0.06818181818181818
tp2080
a(VHeer And Ranjha
p2081
F0.06818181818181818
tp2082
a(VHara
p2083
F0.06818181818181818
tp2084
a(VGame On
p2085
F0.06818181818181818
tp2086
a(VFaisla
p2087
F0.06818181818181818
tp2088
a(VFormula No 44
p2089
F0.06818181818181818
tp2090
a(VFame
p2091
F0.06818181818181818
tp2092
a(VFaisla - The Final Judgement
p2093
F0.06818181818181818
tp2094
a(VEnemmy
p2095
F0.06818181818181818
tp2096
a(VEkti Rahasya Galpo
p2097
F0.06818181818181818
tp2098
a(VEkaant
p2099
F0.06818181818181818
tp2100
a(VDaku
p2101
F0.06818181818181818
tp2102
a(VDhoom 3 : Fasten Your Seatbelts
p2103
F0.06818181818181818
tp2104
a(VChaurahen - Crossroads
p2105
F0.06818181818181818
tp2106
a(VCheers - Celebration Life
p2107
F0.06818181818181818
tp2108
a(VBombay Velvet
p2109
F0.06818181818181818
tp2110
a(VBal Ganesh 2
p2111
F0.06818181818181818
tp2112
a(VAmar Akbar Anthony Remake
p2113
F0.06818181818181818
tp2114
a(VAgyaat
p2115
F0.06818181818181818
tp2116
a(VZakhmo Ka Hisaab
p2117
F0.045454545454545456
tp2118
a(VZakhmi Zameen
p2119
F0.045454545454545456
tp2120
a(VZakhmi Rooh
p2121
F0.045454545454545456
tp2122
a(VZindagi Live
p2123
F0.045454545454545456
tp2124
a(VZindagi Aur Khwab
p2125
F0.045454545454545456
tp2126
a(VYaksh
p2127
F0.045454545454545456
tp2128
a(VYaaron Ki Yaari
p2129
F0.045454545454545456
tp2130
a(VYaara O Dildaara
p2131
F0.045454545454545456
tp2132
a(VYeh To Kamal Ho Gaya
p2133
F0.045454545454545456
tp2134
a(VYeh Hausla
p2135
F0.045454545454545456
tp2136
a(VWafaa
p2137
F0.045454545454545456
tp2138
a(VWoh 5 Din
p2139
F0.045454545454545456
tp2140
a(VVachan
p2141
F0.045454545454545456
tp2142
a(VVishwas
p2143
F0.045454545454545456
tp2144
a(VVeer Savarkar
p2145
F0.045454545454545456
tp2146
a(VVadh
p2147
F0.045454545454545456
tp2148
a(VVirus Diwan
p2149
F0.045454545454545456
tp2150
a(VUranchoo
p2151
F0.045454545454545456
tp2152
a(VUmeed
p2153
F0.045454545454545456
tp2154
a(VUff Mirchi
p2155
F0.045454545454545456
tp2156
a(VShikshanacha Aaicha Gho (Remake)
p2157
F0.045454545454545456
tp2158
a(VSher Khan
p2159
F0.045454545454545456
tp2160
a(VRamchand Pakistani
p2161
F0.045454545454545456
tp2162
a(VRajnigandha
p2163
F0.045454545454545456
tp2164
a(VQatl
p2165
F0.045454545454545456
tp2166
a(VPaani
p2167
F0.045454545454545456
tp2168
a(VOm - The Ultimate Power
p2169
F0.045454545454545456
tp2170
a(VNeil Ko pakadna
p2171
F0.045454545454545456
tp2172
a(VNadiya Ke Paar
p2173
F0.045454545454545456
tp2174
a(VNaache Mayuri
p2175
F0.045454545454545456
tp2176
a(VNo Entry Mein Entry
p2177
F0.045454545454545456
tp2178
a(VMr India 2
p2179
F0.045454545454545456
tp2180
a(VMost Wanted
p2181
F0.045454545454545456
tp2182
a(VLife Reboot Nahi Hoti
p2183
F0.045454545454545456
tp2184
a(VLara
p2185
F0.045454545454545456
tp2186
a(VJunction
p2187
F0.045454545454545456
tp2188
a(VIshq Mein Pagal
p2189
F0.045454545454545456
tp2190
a(VIssaq
p2191
F0.045454545454545456
tp2192
a(VIshaan
p2193
F0.045454545454545456
tp2194
a(VIndia Rocks
p2195
F0.045454545454545456
tp2196
a(VIs Raat Ki Subah Nahi
p2197
F0.045454545454545456
tp2198
a(VI Am Hariprasad
p2199
F0.045454545454545456
tp2200
a(VHamari Ranbhoomi
p2201
F0.045454545454545456
tp2202
a(VHairaan
p2203
F0.045454545454545456
tp2204
a(VHeartbreaker Remake
p2205
F0.045454545454545456
tp2206
a(VGo Goa Gone
p2207
F0.045454545454545456
tp2208
a(VGharaonda
p2209
F0.045454545454545456
tp2210
a(VFront Page
p2211
F0.045454545454545456
tp2212
a(VFired
p2213
F0.045454545454545456
tp2214
a(VFever
p2215
F0.045454545454545456
tp2216
a(VEk Aur Maut
p2217
F0.045454545454545456
tp2218
a(VEk Aur Jung
p2219
F0.045454545454545456
tp2220
a(VEk Aur Amar Premm
p2221
F0.045454545454545456
tp2222
a(VEk Doctor Ki Maut
p2223
F0.045454545454545456
tp2224
a(VDream Sequence
p2225
F0.045454545454545456
tp2226
a(VDISCO FIGHTER
p2227
F0.045454545454545456
tp2228
a(VDev D
p2229
F0.045454545454545456
tp2230
a(VChillar Party
p2231
F0.045454545454545456
tp2232
a(VBroken Horses
p2233
F0.045454545454545456
tp2234
a(VAkadd
p2235
F0.045454545454545456
tp2236
a(VAccident On Hill Road
p2237
F0.045454545454545456
tp2238
a(VAap Ka Saaya
p2239
F0.045454545454545456
tp2240
a(VZakhmee Insaan
p2241
F0.022727272727272728
tp2242
a(VZakham
p2243
F0.022727272727272728
tp2244
a(VZindagi Aur Maut
p2245
F0.022727272727272728
tp2246
a(VYeh Basti Badmashon Ki
p2247
F0.022727272727272728
tp2248
a(VYasmin
p2249
F0.022727272727272728
tp2250
a(VYaad Rakhenge Aap
p2251
F0.022727272727272728
tp2252
a(VWahan
p2253
F0.022727272727272728
tp2254
a(VWada Tera Wada
p2255
F0.022727272727272728
tp2256
a(VVachan
p2257
F0.022727272727272728
tp2258
a(VVidesh - Heaven On Earth
p2259
F0.022727272727272728
tp2260
a(VUnees Bees
p2261
F0.022727272727272728
tp2262
a(VUnlimited Nasha
p2263
F0.022727272727272728
tp2264
a(VUff Yeh Nashaa
p2265
F0.022727272727272728
tp2266
a(VTeen Ekkey
p2267
F0.022727272727272728
tp2268
a(VSiddharth - The Prisoner
p2269
F0.022727272727272728
tp2270
a(VQayamat Ki Raat
p2271
F0.022727272727272728
tp2272
a(VQatil Chandalini
p2273
F0.022727272727272728
tp2274
a(VQaidi
p2275
F0.022727272727272728
tp2276
a(VPerfect Mismatch
p2277
F0.022727272727272728
tp2278
a(VPaar
p2279
F0.022727272727272728
tp2280
a(VMudrank
p2281
F0.022727272727272728
tp2282
a(VJai Santoshi Maa
p2283
F0.022727272727272728
tp2284
a(VInth Ka Jawaab Patthar
p2285
F0.022727272727272728
tp2286
a(VImpatient Vivek
p2287
F0.022727272727272728
tp2288
a(VGulaal
p2289
F0.022727272727272728
tp2290
a(VFaasla
p2291
F0.022727272727272728
tp2292
a(VFaraar
p2293
F0.022727272727272728
tp2294
a(VFrozen
p2295
F0.022727272727272728
tp2296
a(VDaddy
p2297
F0.022727272727272728
tp2298
a(VBefore The Rains
p2299
F0.022727272727272728
tp2300
a(VZalim Tera Jawab Nahin
p2301
F0.0
tp2302
a(VZakhmon Ke Nishan
p2303
F0.0
tp2304
a(VZakhmi Dil Kalim
p2305
F0.0
tp2306
a(VZakhmi Dil
p2307
F0.0
tp2308
a(VZahreela Saanp
p2309
F0.0
tp2310
a(VZahreela Insaan
p2311
F0.0
tp2312
a(VZahari Saap
p2313
F0.0
tp2314
a(VZaban
p2315
F0.0
tp2316
a(VZaroorat
p2317
F0.0
tp2318
a(VZanjeer
p2319
F0.0
tp2320
a(VZamin
p2321
F0.0
tp2322
a(VYeh Kaisa Prem Janjal
p2323
F0.0
tp2324
a(VYeh Hai U Turn
p2325
F0.0
tp2326
a(VYeh Hai Pyar Ka Mausam
p2327
F0.0
tp2328
a(VWaman Avtar
p2329
F0.0
tp2330
a(VWafadaar
p2331
F0.0
tp2332
a(VWafaa
p2333
F0.0
tp2334
a(VWafaa
p2335
F0.0
tp2336
a(VWadya
p2337
F0.0
tp2338
a(VWoh Kaun Thi
p2339
F0.0
tp2340
a(VWoh Bewafa Thi
p2341
F0.0
tp2342
a(VWapas
p2343
F0.0
tp2344
a(VVali-E-Azam
p2345
F0.0
tp2346
a(VVakil Saheb
p2347
F0.0
tp2348
a(VVahri Duniya
p2349
F0.0
tp2350
a(VVachan
p2351
F0.0
tp2352
a(VVaasna Ki Bhookh
p2353
F0.0
tp2354
a(VVikram Shashikala
p2355
F0.0
tp2356
a(VVatsyayana Kamasutra
p2357
F0.0
tp2358
a(VVardan
p2359
F0.0
tp2360
a(VVahshi Aatma
p2361
F0.0
tp2362
a(VUsha
p2363
F0.0
tp2364
a(VUrvashi
p2365
F0.0
tp2366
a(VUmmeed
p2367
F0.0
tp2368
a(VUmang
p2369
F0.0
tp2370
a(VUlti Ganga
p2371
F0.0
tp2372
a(VUljhan
p2373
F0.0
tp2374
a(VUjala Hi Ujala
p2375
F0.0
tp2376
a(VUjala
p2377
F0.0
tp2378
a(VUddhar
p2379
F0.0
tp2380
a(VUski Kahani
p2381
F0.0
tp2382
a(VUski Roti
p2383
F0.0
tp2384
a(VQeemat
p2385
F0.0
tp2386
a(VQazzak Ki Ladki
p2387
F0.0
tp2388
a(VQatil Jawani
p2389
F0.0
tp2390
a(VQatil Aur Aashiq
p2391
F0.0
tp2392
a(VQatil
p2393
F0.0
tp2394
a(VQatil
p2395
F0.0
tp2396
a(VQaidi No. 911
p2397
F0.0
tp2398
a(VQatil Haseeno Ka
p2399
F0.0
tp2400
a(VOot Patang
p2401
F0.0
tp2402
a(VOonchi Haveli
p2403
F0.0
tp2404
a(VOonch Neech
p2405
F0.0
tp2406
a(VOne Hundred One Raten
p2407
F0.0
tp2408
a(VOmar Khaiyyam
p2409
F0.0
tp2410
a(VOm Jai Jagdish Hare
p2411
F0.0
tp2412
a(VO Panchhi
p2413
F0.0
tp2414
a(VO Janewale
p2415
F0.0
tp2416
a(VOm-Dar-Ba-Dar
p2417
F0.0
tp2418
a(VOcean Of An Old Man
p2419
F0.0
tp2420
a(VLootera
p2421
F0.0
tp2422
a(VKaamwali
p2423
F0.0
tp2424
a(VJai Veeru
p2425
F0.0
tp2426
a(VInteqam
p2427
F0.0
tp2428
a(VIdiot
p2429
F0.0
tp2430
a(VFakhre Islam
p2431
F0.0
tp2432
a(VFaisla
p2433
F0.0
tp2434
a(VFive Riffles
p2435
F0.0
tp2436
a(VFashion
p2437
F0.0
tp2438
a(VEk Ruka Hua Faisla
p2439
F0.0
tp2440
a(VBlue Oranges
p2441
F0.0
tp2442
a(VBachelor Party
p2443
F0.0
tp2444
a.