(dp0
I0
F0.5
sI1
F0.5909090909090909
sI2
F0.5
sI3
F0.4090909090909091
sI4
F0.7272727272727273
sI5
F0.6363636363636364
sI6
F0.5909090909090909
sI7
F0.18181818181818182
sI8
F0.36363636363636365
sI9
F0.7272727272727273
sI10
F0.5909090909090909
sI11
F0.22727272727272727
sI12
F0.09090909090909091
sI13
F0.7272727272727273
sI14
F0.22727272727272727
sI15
F0.8181818181818182
sI16
F0.5454545454545454
sI17
F0.5454545454545454
sI18
F0.4090909090909091
sI19
F0.3181818181818182
sI20
F0.09090909090909091
sI21
F0.36363636363636365
sI22
F0.9090909090909091
sI23
F0.7727272727272727
sI24
F0.5
sI25
F0.7272727272727273
sI26
F0.5
sI27
F0.7272727272727273
sI28
F0.5909090909090909
sI29
F0.13636363636363635
sI30
F0.5
sI31
F0.8181818181818182
sI32
F0.6818181818181818
sI33
F0.09090909090909091
sI34
F0.7727272727272727
sI35
F0.7272727272727273
sI36
F0.5454545454545454
sI37
F0.5454545454545454
sI38
F0.36363636363636365
sI39
F0.2727272727272727
sI40
F0.13636363636363635
sI41
F0.22727272727272727
sI42
F0.2727272727272727
sI43
F0.6818181818181818
sI44
F0.4090909090909091
sI45
F0.5454545454545454
sI46
F0.22727272727272727
sI47
F0.6818181818181818
sI48
F0.6363636363636364
sI49
F0.4090909090909091
sI50
F0.5
sI51
F1.0
sI52
F0.7727272727272727
sI53
F0.7272727272727273
sI54
F0.0
sI55
F0.5909090909090909
sI56
F0.45454545454545453
sI57
F0.6818181818181818
sI58
F0.5454545454545454
sI59
F0.8181818181818182
sI60
F0.18181818181818182
sI61
F0.13636363636363635
sI62
F0.2727272727272727
sI63
F0.18181818181818182
sI64
F0.5
sI65
F0.045454545454545456
sI66
F0.5909090909090909
sI67
F0.7272727272727273
sI68
F0.18181818181818182
sI69
F0.6818181818181818
sI70
F0.45454545454545453
sI71
F0.7727272727272727
sI72
F0.6818181818181818
sI73
F0.22727272727272727
sI74
F0.7272727272727273
sI75
F0.2727272727272727
sI76
F0.8181818181818182
sI77
F0.6818181818181818
sI78
F0.8181818181818182
sI79
F0.36363636363636365
sI80
F0.6363636363636364
sI81
F0.0
sI82
F0.5454545454545454
sI83
F0.9090909090909091
sI84
F0.5
sI85
F0.45454545454545453
sI86
F0.13636363636363635
sI87
F0.6818181818181818
sI88
F0.3181818181818182
sI89
F0.09090909090909091
sI90
F0.7272727272727273
sI91
F0.8181818181818182
sI92
F0.7272727272727273
sI93
F0.5
sI94
F0.7272727272727273
sI95
F0.2727272727272727
sI96
F0.36363636363636365
sI97
F0.6818181818181818
sI98
F0.5454545454545454
sI99
F0.5454545454545454
sI100
F0.7272727272727273
sI101
F0.3181818181818182
sI102
F0.36363636363636365
sI103
F0.6363636363636364
sI104
F0.18181818181818182
sI105
F0.5
sI106
F0.4090909090909091
sI107
F0.7727272727272727
sI108
F0.6363636363636364
sI109
F0.2727272727272727
sI110
F0.5
sI111
F0.18181818181818182
sI112
F0.45454545454545453
sI113
F0.6363636363636364
sI114
F0.6818181818181818
sI115
F0.13636363636363635
sI116
F0.18181818181818182
sI117
F0.09090909090909091
sI118
F0.8636363636363636
sI119
F0.6363636363636364
sI120
F0.8181818181818182
sI121
F0.36363636363636365
sI122
F0.4090909090909091
sI123
F0.8181818181818182
sI124
F0.4090909090909091
sI125
F0.6363636363636364
sI126
F0.36363636363636365
sI127
F0.6363636363636364
sI128
F0.6363636363636364
sI129
F0.6363636363636364
sI130
F0.5
sI131
F0.7272727272727273
sI132
F0.2727272727272727
sI133
F0.5454545454545454
sI134
F0.36363636363636365
sI135
F0.5909090909090909
sI136
F0.4090909090909091
sI137
F0.3181818181818182
sI138
F0.6363636363636364
sI139
F0.5909090909090909
sI140
F0.2727272727272727
sI141
F0.7727272727272727
sI142
F0.5909090909090909
sI143
F0.22727272727272727
sI144
F0.22727272727272727
sI145
F0.13636363636363635
sI146
F0.5
sI147
F0.5
sI148
F0.7727272727272727
sI149
F0.45454545454545453
sI150
F0.6818181818181818
sI151
F0.13636363636363635
sI152
F0.22727272727272727
sI153
F0.8181818181818182
sI154
F0.5
sI155
F0.45454545454545453
sI156
F0.6818181818181818
sI157
F0.6818181818181818
sI158
F0.22727272727272727
sI159
F0.6363636363636364
sI160
F0.5909090909090909
sI161
F0.3181818181818182
sI162
F0.8181818181818182
sI163
F0.8636363636363636
sI164
F0.09090909090909091
sI165
F0.7272727272727273
sI166
F0.6363636363636364
sI167
F0.8636363636363636
sI168
F0.18181818181818182
sI169
F0.7272727272727273
sI170
F0.7272727272727273
sI171
F0.13636363636363635
sI172
F0.36363636363636365
sI173
F0.6818181818181818
sI174
F0.6818181818181818
sI175
F0.6818181818181818
sI176
F0.5
sI177
F0.18181818181818182
sI178
F0.5909090909090909
sI179
F0.5454545454545454
sI180
F0.6818181818181818
sI181
F0.09090909090909091
sI182
F0.5
sI183
F0.7272727272727273
sI184
F0.7727272727272727
sI185
F0.45454545454545453
sI186
F0.4090909090909091
sI187
F0.6363636363636364
sI188
F0.36363636363636365
sI189
F0.09090909090909091
sI190
F0.5454545454545454
sI191
F0.6363636363636364
sI192
F0.6818181818181818
sI193
F0.6363636363636364
sI194
F0.8636363636363636
sI195
F0.3181818181818182
sI196
F0.2727272727272727
sI197
F0.5
sI198
F0.045454545454545456
sI199
F0.13636363636363635
sI200
F0.8181818181818182
sI201
F0.22727272727272727
sI202
F0.8181818181818182
sI203
F0.5909090909090909
sI204
F0.5
sI205
F0.36363636363636365
sI206
F0.2727272727272727
sI207
F0.5
sI208
F0.5909090909090909
sI209
F0.7727272727272727
sI210
F0.22727272727272727
sI211
F0.09090909090909091
sI212
F0.3181818181818182
sI213
F0.2727272727272727
sI214
F0.36363636363636365
sI215
F0.2727272727272727
sI216
F0.6818181818181818
sI217
F0.18181818181818182
sI218
F0.2727272727272727
sI219
F0.13636363636363635
sI220
F0.36363636363636365
sI221
F0.6363636363636364
sI222
F0.13636363636363635
sI223
F0.8181818181818182
sI224
F0.18181818181818182
sI225
F0.18181818181818182
sI226
F0.6818181818181818
sI227
F0.5454545454545454
sI228
F0.5
sI229
F0.8636363636363636
sI230
F0.2727272727272727
sI231
F0.18181818181818182
sI232
F0.5
sI233
F0.22727272727272727
sI234
F0.22727272727272727
sI235
F0.3181818181818182
sI236
F0.2727272727272727
sI237
F0.8181818181818182
sI238
F0.22727272727272727
sI239
F0.0
sI240
F0.6363636363636364
sI241
F0.2727272727272727
sI242
F0.13636363636363635
sI243
F0.09090909090909091
sI244
F0.7727272727272727
sI245
F0.09090909090909091
sI246
F0.4090909090909091
sI247
F0.09090909090909091
sI248
F0.2727272727272727
sI249
F0.18181818181818182
sI250
F0.7272727272727273
sI251
F0.36363636363636365
sI252
F0.6363636363636364
sI253
F0.5909090909090909
sI254
F0.18181818181818182
sI255
F0.8181818181818182
sI256
F0.5454545454545454
sI257
F0.22727272727272727
sI258
F0.13636363636363635
sI259
F0.13636363636363635
sI260
F0.36363636363636365
sI261
F0.22727272727272727
sI262
F0.2727272727272727
sI263
F0.4090909090909091
sI264
F0.22727272727272727
sI265
F0.22727272727272727
sI266
F0.09090909090909091
sI267
F0.7727272727272727
sI268
F0.7272727272727273
sI269
F0.5454545454545454
sI270
F0.7727272727272727
sI271
F0.7272727272727273
sI272
F0.2727272727272727
sI273
F0.13636363636363635
sI274
F0.18181818181818182
sI275
F0.5
sI276
F0.6363636363636364
sI277
F0.6818181818181818
sI278
F0.8181818181818182
sI279
F0.3181818181818182
sI280
F0.3181818181818182
sI281
F0.09090909090909091
sI282
F0.5909090909090909
sI283
F0.22727272727272727
sI284
F0.09090909090909091
sI285
F0.045454545454545456
sI286
F0.18181818181818182
sI287
F0.6818181818181818
sI288
F0.045454545454545456
sI289
F0.0
sI290
F0.18181818181818182
sI291
F0.0
sI292
F0.22727272727272727
sI293
F0.8181818181818182
sI294
F0.2727272727272727
sI295
F0.045454545454545456
sI296
F0.3181818181818182
sI297
F0.13636363636363635
sI298
F0.0
sI299
F0.0
sI300
F0.5454545454545454
sI301
F0.45454545454545453
sI302
F0.5
sI303
F0.8181818181818182
sI304
F0.3181818181818182
sI305
F0.5909090909090909
sI306
F1.0
sI307
F0.5909090909090909
sI308
F0.8181818181818182
sI309
F0.45454545454545453
sI310
F0.8636363636363636
sI311
F0.7727272727272727
sI312
F0.7272727272727273
sI313
F0.4090909090909091
sI314
F0.22727272727272727
sI315
F0.045454545454545456
sI316
F0.22727272727272727
sI317
F0.2727272727272727
sI318
F0.8636363636363636
sI319
F0.9090909090909091
sI320
F0.7272727272727273
sI321
F0.22727272727272727
sI322
F0.5
sI323
F0.13636363636363635
sI324
F0.36363636363636365
sI325
F0.2727272727272727
sI326
F0.2727272727272727
sI327
F0.45454545454545453
sI328
F0.18181818181818182
sI329
F0.5909090909090909
sI330
F0.8181818181818182
sI331
F0.22727272727272727
sI332
F0.6818181818181818
sI333
F0.2727272727272727
sI334
F0.36363636363636365
sI335
F0.5
sI336
F0.09090909090909091
sI337
F0.5909090909090909
sI338
F0.36363636363636365
sI339
F0.5909090909090909
sI340
F0.18181818181818182
sI341
F0.6363636363636364
sI342
F0.09090909090909091
sI343
F0.5
sI344
F0.6363636363636364
sI345
F0.5909090909090909
sI346
F0.4090909090909091
sI347
F0.18181818181818182
sI348
F0.2727272727272727
sI349
F0.7727272727272727
sI350
F0.7272727272727273
sI351
F0.7727272727272727
sI352
F0.2727272727272727
sI353
F0.2727272727272727
sI354
F0.5454545454545454
sI355
F0.13636363636363635
sI356
F0.4090909090909091
sI357
F0.09090909090909091
sI358
F0.13636363636363635
sI359
F0.7272727272727273
sI360
F0.8181818181818182
sI361
F0.45454545454545453
sI362
F0.3181818181818182
sI363
F0.4090909090909091
sI364
F0.9545454545454546
sI365
F0.13636363636363635
sI366
F0.7272727272727273
sI367
F0.4090909090909091
sI368
F0.5
sI369
F0.7727272727272727
sI370
F0.3181818181818182
sI371
F0.7272727272727273
sI372
F0.7727272727272727
sI373
F0.3181818181818182
sI374
F0.6363636363636364
sI375
F0.7272727272727273
sI376
F0.7727272727272727
sI377
F0.4090909090909091
sI378
F0.8181818181818182
sI379
F0.13636363636363635
sI380
F0.5
sI381
F0.7272727272727273
sI382
F0.4090909090909091
sI383
F0.5909090909090909
sI384
F0.6363636363636364
sI385
F0.3181818181818182
sI386
F0.5909090909090909
sI387
F0.6818181818181818
sI388
F0.8181818181818182
sI389
F0.7727272727272727
sI390
F0.22727272727272727
sI391
F0.6363636363636364
sI392
F0.09090909090909091
sI393
F0.18181818181818182
sI394
F0.18181818181818182
sI395
F0.5454545454545454
sI396
F0.09090909090909091
sI397
F0.3181818181818182
sI398
F0.18181818181818182
sI399
F0.8181818181818182
sI400
F0.09090909090909091
sI401
F0.6363636363636364
sI402
F0.7727272727272727
sI403
F0.6818181818181818
sI404
F0.6818181818181818
sI405
F0.7727272727272727
sI406
F0.5
sI407
F0.22727272727272727
sI408
F0.22727272727272727
sI409
F0.2727272727272727
sI410
F0.18181818181818182
sI411
F0.5909090909090909
sI412
F0.18181818181818182
sI413
F0.36363636363636365
sI414
F0.18181818181818182
sI415
F0.22727272727272727
sI416
F0.3181818181818182
sI417
F0.18181818181818182
sI418
F0.09090909090909091
sI419
F0.22727272727272727
sI420
F0.4090909090909091
sI421
F0.13636363636363635
sI422
F0.5909090909090909
sI423
F0.09090909090909091
sI424
F0.3181818181818182
sI425
F0.3181818181818182
sI426
F0.6818181818181818
sI427
F0.6363636363636364
sI428
F0.18181818181818182
sI429
F0.6363636363636364
sI430
F0.09090909090909091
sI431
F0.45454545454545453
sI432
F0.8181818181818182
sI433
F0.09090909090909091
sI434
F0.2727272727272727
sI435
F0.36363636363636365
sI436
F0.5454545454545454
sI437
F0.0
sI438
F0.045454545454545456
sI439
F0.8181818181818182
sI440
F0.6363636363636364
sI441
F0.5
sI442
F0.7727272727272727
sI443
F0.2727272727272727
sI444
F0.0
sI445
F0.5
sI446
F0.045454545454545456
sI447
F0.5
sI448
F0.09090909090909091
sI449
F0.4090909090909091
sI450
F0.22727272727272727
sI451
F0.7727272727272727
sI452
F0.18181818181818182
sI453
F0.3181818181818182
sI454
F0.2727272727272727
sI455
F0.8636363636363636
sI456
F0.0
sI457
F0.22727272727272727
sI458
F0.45454545454545453
sI459
F0.2727272727272727
sI460
F0.6363636363636364
sI461
F0.5909090909090909
sI462
F0.6818181818181818
sI463
F0.36363636363636365
sI464
F0.7272727272727273
sI465
F0.22727272727272727
sI466
F0.5
sI467
F0.2727272727272727
sI468
F0.18181818181818182
sI469
F0.7727272727272727
sI470
F0.13636363636363635
sI471
F0.5909090909090909
sI472
F0.36363636363636365
sI473
F0.8181818181818182
sI474
F0.5
sI475
F0.18181818181818182
sI476
F0.18181818181818182
sI477
F0.045454545454545456
sI478
F0.13636363636363635
sI479
F0.6363636363636364
sI480
F0.3181818181818182
sI481
F0.45454545454545453
sI482
F0.36363636363636365
sI483
F0.5454545454545454
sI484
F0.13636363636363635
sI485
F0.3181818181818182
sI486
F0.7727272727272727
sI487
F0.3181818181818182
sI488
F0.5
sI489
F0.2727272727272727
sI490
F0.5454545454545454
sI491
F0.6818181818181818
sI492
F0.6363636363636364
sI493
F0.7272727272727273
sI494
F0.7272727272727273
sI495
F0.5454545454545454
sI496
F0.7272727272727273
sI497
F0.3181818181818182
sI498
F0.09090909090909091
sI499
F0.7727272727272727
sI500
F0.3181818181818182
sI501
F0.0
sI502
F0.9545454545454546
sI503
F0.3181818181818182
sI504
F0.8181818181818182
sI505
F0.5909090909090909
sI506
F0.9090909090909091
sI507
F0.36363636363636365
sI508
F0.7272727272727273
sI509
F0.7272727272727273
sI510
F0.8181818181818182
sI511
F0.6818181818181818
sI512
F0.6818181818181818
sI513
F0.22727272727272727
sI514
F0.7272727272727273
sI515
F0.5909090909090909
sI516
F0.36363636363636365
sI517
F0.13636363636363635
sI518
F0.5454545454545454
sI519
F0.45454545454545453
sI520
F0.8181818181818182
sI521
F0.8181818181818182
sI522
F0.4090909090909091
sI523
F0.36363636363636365
sI524
F0.8181818181818182
sI525
F0.4090909090909091
sI526
F0.5909090909090909
sI527
F0.2727272727272727
sI528
F0.5909090909090909
sI529
F0.5909090909090909
sI530
F0.3181818181818182
sI531
F0.5
sI532
F0.13636363636363635
sI533
F0.6818181818181818
sI534
F0.5
sI535
F0.6818181818181818
sI536
F0.3181818181818182
sI537
F0.5909090909090909
sI538
F0.4090909090909091
sI539
F0.5909090909090909
sI540
F0.6818181818181818
sI541
F0.13636363636363635
sI542
F0.2727272727272727
sI543
F0.7272727272727273
sI544
F0.7727272727272727
sI545
F0.7727272727272727
sI546
F0.5454545454545454
sI547
F0.09090909090909091
sI548
F0.6818181818181818
sI549
F0.6818181818181818
sI550
F0.2727272727272727
sI551
F0.3181818181818182
sI552
F0.8636363636363636
sI553
F0.5454545454545454
sI554
F0.4090909090909091
sI555
F0.13636363636363635
sI556
F0.8181818181818182
sI557
F0.6818181818181818
sI558
F0.3181818181818182
sI559
F0.45454545454545453
sI560
F0.4090909090909091
sI561
F0.6818181818181818
sI562
F0.5909090909090909
sI563
F0.6363636363636364
sI564
F0.45454545454545453
sI565
F0.0
sI566
F0.5454545454545454
sI567
F0.22727272727272727
sI568
F0.5
sI569
F0.36363636363636365
sI570
F0.6363636363636364
sI571
F0.45454545454545453
sI572
F0.7272727272727273
sI573
F0.9090909090909091
sI574
F0.7727272727272727
sI575
F1.0
sI576
F0.9090909090909091
sI577
F0.18181818181818182
sI578
F0.7727272727272727
sI579
F0.45454545454545453
sI580
F0.3181818181818182
sI581
F0.3181818181818182
sI582
F0.7272727272727273
sI583
F0.3181818181818182
sI584
F0.13636363636363635
sI585
F0.8636363636363636
sI586
F0.2727272727272727
sI587
F0.2727272727272727
sI588
F0.6363636363636364
sI589
F0.3181818181818182
sI590
F0.36363636363636365
sI591
F0.09090909090909091
sI592
F0.3181818181818182
sI593
F0.4090909090909091
sI594
F0.3181818181818182
sI595
F0.18181818181818182
sI596
F0.3181818181818182
sI597
F0.13636363636363635
sI598
F0.09090909090909091
sI599
F0.7272727272727273
sI600
F0.4090909090909091
sI601
F0.5454545454545454
sI602
F0.5454545454545454
sI603
F0.2727272727272727
sI604
F0.22727272727272727
sI605
F0.5909090909090909
sI606
F0.45454545454545453
sI607
F0.7727272727272727
sI608
F0.7272727272727273
sI609
F0.3181818181818182
sI610
F0.5454545454545454
sI611
F0.4090909090909091
sI612
F0.13636363636363635
sI613
F0.18181818181818182
sI614
F0.6818181818181818
sI615
F0.45454545454545453
sI616
F0.3181818181818182
sI617
F0.7727272727272727
sI618
F0.8636363636363636
sI619
F0.3181818181818182
sI620
F0.7272727272727273
sI621
F0.6818181818181818
sI622
F0.3181818181818182
sI623
F0.5454545454545454
sI624
F0.4090909090909091
sI625
F0.6363636363636364
sI626
F0.7272727272727273
sI627
F0.7272727272727273
sI628
F0.2727272727272727
sI629
F0.09090909090909091
sI630
F0.22727272727272727
sI631
F0.09090909090909091
sI632
F0.5
sI633
F0.5909090909090909
sI634
F0.36363636363636365
sI635
F0.045454545454545456
sI636
F0.13636363636363635
sI637
F0.7272727272727273
sI638
F0.45454545454545453
sI639
F0.2727272727272727
sI640
F0.6363636363636364
sI641
F0.22727272727272727
sI642
F0.5454545454545454
sI643
F0.7727272727272727
sI644
F0.7272727272727273
sI645
F0.36363636363636365
sI646
F0.7727272727272727
sI647
F0.7272727272727273
sI648
F0.2727272727272727
sI649
F0.45454545454545453
sI650
F0.6363636363636364
sI651
F0.5454545454545454
sI652
F0.7272727272727273
sI653
F0.7727272727272727
sI654
F0.5909090909090909
sI655
F0.8181818181818182
sI656
F0.09090909090909091
sI657
F0.18181818181818182
sI658
F0.7272727272727273
sI659
F0.36363636363636365
sI660
F0.22727272727272727
sI661
F0.45454545454545453
sI662
F0.3181818181818182
sI663
F0.36363636363636365
sI664
F0.5454545454545454
sI665
F0.3181818181818182
sI666
F0.5
sI667
F0.18181818181818182
sI668
F0.5909090909090909
sI669
F0.36363636363636365
sI670
F0.7727272727272727
sI671
F0.2727272727272727
sI672
F0.3181818181818182
sI673
F0.18181818181818182
sI674
F0.5454545454545454
sI675
F0.5909090909090909
sI676
F0.5454545454545454
sI677
F0.09090909090909091
sI678
F0.6818181818181818
sI679
F0.5
sI680
F0.09090909090909091
sI681
F0.2727272727272727
sI682
F0.2727272727272727
sI683
F0.2727272727272727
sI684
F0.7727272727272727
sI685
F0.5909090909090909
sI686
F0.6818181818181818
sI687
F0.13636363636363635
sI688
F0.2727272727272727
sI689
F0.2727272727272727
sI690
F0.13636363636363635
sI691
F0.22727272727272727
sI692
F0.22727272727272727
sI693
F0.6363636363636364
sI694
F0.5
sI695
F0.3181818181818182
sI696
F0.09090909090909091
sI697
F0.18181818181818182
sI698
F0.18181818181818182
sI699
F0.36363636363636365
sI700
F0.22727272727272727
sI701
F1.0
sI702
F0.6363636363636364
sI703
F0.13636363636363635
sI704
F0.5909090909090909
sI705
F0.6363636363636364
sI706
F0.3181818181818182
sI707
F0.4090909090909091
sI708
F1.0
sI709
F0.7727272727272727
sI710
F0.18181818181818182
sI711
F0.0
sI712
F0.13636363636363635
sI713
F0.13636363636363635
sI714
F0.5909090909090909
sI715
F0.6818181818181818
sI716
F0.5
sI717
F0.2727272727272727
sI718
F0.5454545454545454
sI719
F0.09090909090909091
sI720
F0.0
sI721
F0.13636363636363635
sI722
F0.0
sI723
F0.0
sI724
F0.13636363636363635
sI725
F0.18181818181818182
sI726
F0.5
sI727
F0.0
sI728
F0.0
sI729
F0.13636363636363635
sI730
F0.0
sI731
F0.2727272727272727
sI732
F0.0
sI733
F0.2727272727272727
sI734
F0.2727272727272727
sI735
F0.2727272727272727
sI736
F0.0
sI737
F0.13636363636363635
sI738
F0.0
sI739
F0.13636363636363635
sI740
F0.5909090909090909
sI741
F0.09090909090909091
sI742
F0.5909090909090909
sI743
F0.8636363636363636
sI744
F0.7727272727272727
sI745
F0.5909090909090909
sI746
F0.5
sI747
F0.5
sI748
F0.7272727272727273
sI749
F0.6818181818181818
sI750
F0.8636363636363636
sI751
F0.22727272727272727
sI752
F0.36363636363636365
sI753
F0.6363636363636364
sI754
F0.5909090909090909
sI755
F0.6818181818181818
sI756
F0.5909090909090909
sI757
F0.13636363636363635
sI758
F0.36363636363636365
sI759
F0.4090909090909091
sI760
F0.5909090909090909
sI761
F0.6818181818181818
sI762
F0.7272727272727273
sI763
F0.7727272727272727
sI764
F0.5454545454545454
sI765
F0.5
sI766
F0.5
sI767
F0.6363636363636364
sI768
F0.8181818181818182
sI769
F0.36363636363636365
sI770
F0.045454545454545456
sI771
F0.2727272727272727
sI772
F0.18181818181818182
sI773
F0.3181818181818182
sI774
F0.5
sI775
F0.13636363636363635
sI776
F0.13636363636363635
sI777
F0.2727272727272727
sI778
F0.3181818181818182
sI779
F0.2727272727272727
sI780
F0.2727272727272727
sI781
F0.36363636363636365
sI782
F0.7272727272727273
sI783
F0.045454545454545456
sI784
F0.13636363636363635
sI785
F0.13636363636363635
sI786
F0.18181818181818182
sI787
F0.6363636363636364
sI788
F0.5454545454545454
sI789
F0.18181818181818182
sI790
F0.5
sI791
F0.22727272727272727
sI792
F0.8636363636363636
sI793
F0.4090909090909091
sI794
F0.045454545454545456
sI795
F0.5
sI796
F0.0
sI797
F0.22727272727272727
sI798
F0.5454545454545454
sI799
F0.6363636363636364
sI800
F0.2727272727272727
sI801
F0.7272727272727273
sI802
F0.0
sI803
F0.22727272727272727
sI804
F0.18181818181818182
sI805
F0.0
sI806
F0.22727272727272727
sI807
F0.0
sI808
F0.0
sI809
F0.6363636363636364
sI810
F0.0
sI811
F0.045454545454545456
sI812
F0.0
sI813
F0.09090909090909091
sI814
F0.4090909090909091
sI815
F0.045454545454545456
sI816
F0.0
sI817
F0.0
sI818
F0.6818181818181818
sI819
F0.4090909090909091
sI820
F0.8181818181818182
sI821
F0.22727272727272727
sI822
F0.7727272727272727
sI823
F0.6818181818181818
sI824
F0.5
sI825
F0.5454545454545454
sI826
F0.7272727272727273
sI827
F0.36363636363636365
sI828
F0.45454545454545453
sI829
F0.2727272727272727
sI830
F0.6818181818181818
sI831
F0.6818181818181818
sI832
F0.09090909090909091
sI833
F0.5454545454545454
sI834
F0.4090909090909091
sI835
F0.4090909090909091
sI836
F0.2727272727272727
sI837
F0.09090909090909091
sI838
F0.18181818181818182
sI839
F0.5454545454545454
sI840
F0.8636363636363636
sI841
F0.8636363636363636
sI842
F0.5
sI843
F0.7727272727272727
sI844
F0.7272727272727273
sI845
F0.5454545454545454
sI846
F0.36363636363636365
sI847
F0.2727272727272727
sI848
F0.6363636363636364
sI849
F0.45454545454545453
sI850
F0.22727272727272727
sI851
F0.22727272727272727
sI852
F0.22727272727272727
sI853
F0.45454545454545453
sI854
F0.36363636363636365
sI855
F0.7272727272727273
sI856
F0.5909090909090909
sI857
F0.18181818181818182
sI858
F0.18181818181818182
sI859
F0.45454545454545453
sI860
F0.22727272727272727
sI861
F0.22727272727272727
sI862
F0.5909090909090909
sI863
F0.3181818181818182
sI864
F0.5454545454545454
sI865
F0.9090909090909091
sI866
F0.6818181818181818
sI867
F0.45454545454545453
sI868
F0.6363636363636364
sI869
F0.5454545454545454
sI870
F0.4090909090909091
sI871
F0.6363636363636364
sI872
F0.6363636363636364
sI873
F0.4090909090909091
sI874
F1.0
sI875
F0.7727272727272727
sI876
F0.9090909090909091
sI877
F0.18181818181818182
sI878
F0.7727272727272727
sI879
F0.9545454545454546
sI880
F0.22727272727272727
sI881
F0.3181818181818182
sI882
F0.6818181818181818
sI883
F0.2727272727272727
sI884
F0.13636363636363635
sI885
F0.5909090909090909
sI886
F0.5454545454545454
sI887
F0.18181818181818182
sI888
F0.3181818181818182
sI889
F0.2727272727272727
sI890
F0.7272727272727273
sI891
F0.6363636363636364
sI892
F0.4090909090909091
sI893
F0.7272727272727273
sI894
F0.5909090909090909
sI895
F0.4090909090909091
sI896
F0.7272727272727273
sI897
F0.3181818181818182
sI898
F0.36363636363636365
sI899
F0.6818181818181818
sI900
F0.09090909090909091
sI901
F0.09090909090909091
sI902
F0.2727272727272727
sI903
F0.22727272727272727
sI904
F0.4090909090909091
sI905
F0.45454545454545453
sI906
F0.8181818181818182
sI907
F0.2727272727272727
sI908
F0.6363636363636364
sI909
F0.045454545454545456
sI910
F0.36363636363636365
sI911
F0.45454545454545453
sI912
F0.2727272727272727
sI913
F0.9090909090909091
sI914
F0.5909090909090909
sI915
F0.45454545454545453
sI916
F0.2727272727272727
sI917
F0.13636363636363635
sI918
F0.45454545454545453
sI919
F0.13636363636363635
sI920
F0.8181818181818182
sI921
F0.18181818181818182
sI922
F0.6818181818181818
sI923
F0.2727272727272727
sI924
F0.45454545454545453
sI925
F0.7272727272727273
sI926
F0.7727272727272727
sI927
F0.7272727272727273
sI928
F0.8181818181818182
sI929
F0.45454545454545453
sI930
F0.7727272727272727
sI931
F0.6818181818181818
sI932
F0.45454545454545453
sI933
F0.5454545454545454
sI934
F0.5
sI935
F0.4090909090909091
sI936
F0.18181818181818182
sI937
F0.4090909090909091
sI938
F0.36363636363636365
sI939
F0.7272727272727273
sI940
F0.4090909090909091
sI941
F0.7727272727272727
sI942
F0.3181818181818182
sI943
F0.22727272727272727
sI944
F0.4090909090909091
sI945
F0.3181818181818182
sI946
F0.5
sI947
F0.5
sI948
F0.22727272727272727
sI949
F0.5454545454545454
sI950
F0.5909090909090909
sI951
F0.3181818181818182
sI952
F0.7727272727272727
sI953
F0.6818181818181818
sI954
F0.2727272727272727
sI955
F0.6818181818181818
sI956
F0.3181818181818182
sI957
F0.6818181818181818
sI958
F0.8181818181818182
sI959
F0.8181818181818182
sI960
F0.45454545454545453
sI961
F0.5909090909090909
sI962
F0.045454545454545456
sI963
F0.3181818181818182
sI964
F0.2727272727272727
sI965
F0.18181818181818182
sI966
F0.4090909090909091
sI967
F0.2727272727272727
sI968
F0.2727272727272727
sI969
F0.45454545454545453
sI970
F0.6363636363636364
sI971
F0.3181818181818182
sI972
F0.5
sI973
F0.6363636363636364
sI974
F0.3181818181818182
sI975
F0.8181818181818182
sI976
F0.2727272727272727
sI977
F0.4090909090909091
sI978
F0.7272727272727273
sI979
F0.6818181818181818
sI980
F0.6363636363636364
sI981
F0.22727272727272727
sI982
F0.0
sI983
F0.7727272727272727
sI984
F0.18181818181818182
sI985
F0.09090909090909091
sI986
F0.045454545454545456
sI987
F0.5454545454545454
sI988
F0.4090909090909091
sI989
F0.5
sI990
F0.045454545454545456
sI991
F0.0
sI992
F0.13636363636363635
sI993
F0.45454545454545453
sI994
F0.6818181818181818
sI995
F0.6818181818181818
sI996
F0.4090909090909091
sI997
F0.6363636363636364
sI998
F0.0
sI999
F0.2727272727272727
sI1000
F0.3181818181818182
sI1001
F0.0
sI1002
F0.18181818181818182
sI1003
F0.0
sI1004
F0.18181818181818182
sI1005
F0.36363636363636365
sI1006
F0.0
sI1007
F0.2727272727272727
sI1008
F0.0
sI1009
F0.0
sI1010
F0.5454545454545454
sI1011
F0.2727272727272727
sI1012
F0.09090909090909091
sI1013
F0.0
sI1014
F0.045454545454545456
sI1015
F0.22727272727272727
sI1016
F0.09090909090909091
sI1017
F0.0
sI1018
F0.3181818181818182
sI1019
F0.0
sI1020
F0.36363636363636365
sI1021
F0.7272727272727273
sI1022
F0.8181818181818182
sI1023
F0.6818181818181818
sI1024
F0.5
sI1025
F0.6363636363636364
sI1026
F0.5909090909090909
sI1027
F0.4090909090909091
sI1028
F0.5909090909090909
sI1029
F0.3181818181818182
sI1030
F0.45454545454545453
sI1031
F0.3181818181818182
sI1032
F0.7272727272727273
sI1033
F0.6818181818181818
sI1034
F0.045454545454545456
sI1035
F0.5454545454545454
sI1036
F0.4090909090909091
sI1037
F0.5
sI1038
F0.7272727272727273
sI1039
F0.3181818181818182
sI1040
F0.8181818181818182
sI1041
F0.22727272727272727
sI1042
F0.5454545454545454
sI1043
F0.45454545454545453
sI1044
F0.36363636363636365
sI1045
F0.09090909090909091
sI1046
F0.45454545454545453
sI1047
F0.2727272727272727
sI1048
F0.09090909090909091
sI1049
F0.0
sI1050
F0.18181818181818182
sI1051
F0.0
sI1052
F0.0
sI1053
F0.09090909090909091
sI1054
F0.2727272727272727
sI1055
F0.45454545454545453
sI1056
F0.0
sI1057
F0.09090909090909091
sI1058
F0.6363636363636364
sI1059
F0.2727272727272727
sI1060
F0.0
sI1061
F0.09090909090909091
sI1062
F0.045454545454545456
sI1063
F0.0
sI1064
F0.0
sI1065
F0.36363636363636365
sI1066
F0.0
sI1067
F0.18181818181818182
sI1068
F0.0
sI1069
F0.3181818181818182
sI1070
F0.4090909090909091
sI1071
F0.6818181818181818
sI1072
F0.9090909090909091
sI1073
F0.6818181818181818
sI1074
F0.8636363636363636
sI1075
F0.6818181818181818
sI1076
F0.13636363636363635
sI1077
F0.5
sI1078
F0.7272727272727273
sI1079
F0.5909090909090909
sI1080
F0.2727272727272727
sI1081
F0.3181818181818182
sI1082
F0.5909090909090909
sI1083
F0.3181818181818182
sI1084
F0.2727272727272727
sI1085
F0.45454545454545453
sI1086
F0.6363636363636364
sI1087
F0.22727272727272727
sI1088
F0.36363636363636365
sI1089
F0.6818181818181818
sI1090
F0.5454545454545454
sI1091
F0.3181818181818182
sI1092
F0.36363636363636365
sI1093
F0.18181818181818182
sI1094
F0.5454545454545454
sI1095
F0.13636363636363635
sI1096
F0.2727272727272727
sI1097
F0.5909090909090909
sI1098
F0.0
sI1099
F0.18181818181818182
sI1100
F0.5454545454545454
sI1101
F0.5
sI1102
F0.09090909090909091
sI1103
F0.0
sI1104
F0.0
sI1105
F0.5909090909090909
sI1106
F0.45454545454545453
sI1107
F0.5
sI1108
F0.045454545454545456
sI1109
F0.0
sI1110
F0.0
sI1111
F0.09090909090909091
sI1112
F0.0
sI1113
F0.4090909090909091
sI1114
F0.0
sI1115
F0.045454545454545456
sI1116
F0.22727272727272727
sI1117
F0.2727272727272727
sI1118
F0.5
sI1119
F0.0
sI1120
F0.2727272727272727
sI1121
F0.5909090909090909
sI1122
F0.36363636363636365
sI1123
F0.13636363636363635
sI1124
F0.6363636363636364
sI1125
F0.5454545454545454
sI1126
F0.5909090909090909
sI1127
F0.8181818181818182
sI1128
F0.45454545454545453
sI1129
F0.4090909090909091
sI1130
F0.36363636363636365
sI1131
F0.7272727272727273
sI1132
F0.6363636363636364
sI1133
F0.09090909090909091
sI1134
F0.18181818181818182
sI1135
F0.7272727272727273
sI1136
F0.09090909090909091
sI1137
F0.5
sI1138
F0.6818181818181818
sI1139
F0.9090909090909091
sI1140
F0.13636363636363635
sI1141
F0.22727272727272727
sI1142
F0.22727272727272727
sI1143
F0.22727272727272727
sI1144
F0.13636363636363635
sI1145
F0.7727272727272727
sI1146
F0.36363636363636365
sI1147
F0.6363636363636364
sI1148
F0.7272727272727273
sI1149
F0.6818181818181818
sI1150
F0.5454545454545454
sI1151
F0.45454545454545453
sI1152
F0.45454545454545453
sI1153
F0.2727272727272727
sI1154
F0.7272727272727273
sI1155
F0.22727272727272727
sI1156
F0.5454545454545454
sI1157
F0.3181818181818182
sI1158
F0.045454545454545456
sI1159
F0.09090909090909091
sI1160
F0.09090909090909091
sI1161
F0.3181818181818182
sI1162
F0.09090909090909091
sI1163
F0.5454545454545454
sI1164
F0.045454545454545456
sI1165
F0.045454545454545456
sI1166
F0.5454545454545454
sI1167
F0.3181818181818182
sI1168
F0.0
sI1169
F0.0
sI1170
F0.0
sI1171
F0.2727272727272727
sI1172
F0.5909090909090909
sI1173
F0.3181818181818182
sI1174
F0.36363636363636365
sI1175
F0.6818181818181818
sI1176
F0.7272727272727273
sI1177
F0.45454545454545453
sI1178
F0.7272727272727273
sI1179
F0.5454545454545454
sI1180
F0.6363636363636364
sI1181
F0.13636363636363635
sI1182
F0.2727272727272727
sI1183
F0.36363636363636365
sI1184
F0.2727272727272727
sI1185
F0.09090909090909091
sI1186
F0.36363636363636365
sI1187
F0.09090909090909091
sI1188
F0.5454545454545454
sI1189
F0.45454545454545453
sI1190
F0.09090909090909091
sI1191
F0.2727272727272727
sI1192
F0.7272727272727273
sI1193
F0.0
sI1194
F0.0
sI1195
F0.2727272727272727
sI1196
F0.0
sI1197
F0.045454545454545456
sI1198
F0.3181818181818182
sI1199
F0.6818181818181818
sI1200
F0.45454545454545453
sI1201
F0.13636363636363635
sI1202
F0.0
sI1203
F0.4090909090909091
sI1204
F0.0
sI1205
F0.0
sI1206
F0.0
sI1207
F0.2727272727272727
sI1208
F0.045454545454545456
sI1209
F0.2727272727272727
sI1210
F0.045454545454545456
sI1211
F0.4090909090909091
sI1212
F0.5909090909090909
sI1213
F0.0
sI1214
F0.0
sI1215
F0.5454545454545454
sI1216
F0.3181818181818182
sI1217
F0.09090909090909091
sI1218
F0.09090909090909091
sI1219
F0.0
sI1220
F0.3181818181818182
sI1221
F0.0
s.