(dp0
Vco-producer
p1
F0.42844032534359405
sVscreenplay
p2
F2.0866716967428296
sVdressman
p3
F0.02211446262675604
sVpublicity_printers
p4
F0.2930644579931071
sVproducer
p5
F5.969981607579086
sVassistant_art_director
p6
F0.17162092950063035
sVbackground_music
p7
F2.141139311207882
sVmusic_director
p8
F58.3041461701809
sVprocessing_in_charge
p9
F0.015384615384615385
sVbusiness_executive
p10
F0.009775621171450203
sVproduction_assistant
p11
F0.032608428202972446
sVre-recordist
p12
F0.21934583513197797
sVtitles
p13
F2.4352521796190176
sVassistant_make_up_person
p14
F0.021808832425892315
sVdistributor
p15
F2.884145163704782
sVlaboratory
p16
F5.759313112333825
sVstill_photographer
p17
F0.22703295905339546
sVchief_assistant_cinematographer
p18
F0.013605442176870748
sVdedicated_to_
p19
F0.038523143575938563
sVstory
p20
F1.6637980798426948
sVassistant_costume_designer
p21
F0.005025125628140704
sVproduction_designer
p22
F0.528248242011816
sVlyrics
p23
F136.8701774999812
sVaction_director
p24
F15.269286973341135
sVpresenter
p25
F0.42237853329185887
sVassistant_action_director
p26
F0.08547960610818717
sVsound_effects
p27
F0.04827951770765755
sVcasting_director
p28
F0.2081873711173419
sVeditor
p29
F9.59901175709225
sVhair_stylist
p30
F0.7334430921784255
sVchartered_accountants
p31
F0.05279942371360192
sVaudiographer
p32
F9.261926154413059
sVline_producer
p33
F0.006042296072507553
sVsound_designer
p34
F1.3972247442597008
sVsound_editing
p35
F0.0360899175967887
sVdialogue
p36
F2.450523898228581
sVnarrator
p37
F0.02756892230576441
sVexecutive_producer
p38
F0.39606511265458416
sVcostumes_designer
p39
F23.287438613681005
sVcatering
p40
F0.004273504273504274
sVdirector
p41
F4.123555304305175
sVpromos
p42
F0.9015241379283025
sVcinematographer
p43
F8.572353582778842
sVassistant_audiographer
p44
F0.012234529390888545
sVpublicity_design
p45
F16.238039097673706
sVbanner
p46
F18.293522266349903
sVmake_up_
p47
F1.0830281854969128
sVchoreographer
p48
F79.39340756933679
sVassistant_music_director
p49
F0.8309569641893539
sVassistant_editor
p50
F0.4606832483418073
sVassistant_director
p51
F0.30802486087320674
sVremix
p52
F0.10380558849983279
sVassistant_cinematographer
p53
F0.15508165727760267
sVchild_artiste_supp
p54
F0.07141329903127587
sVname
p55
F0.6149049239874165
sVart_director
p56
F16.866985617138607
sVproduction_controller
p57
F0.027225532416966552
sVproduction_manager
p58
F0.023414527258387025
sVassociate_producer
p59
F0.049941732608591985
sVvisual_effects
p60
F2.2927591337121367
sVcast
p61
F555.9407931066039
sVpublicity_campaigners
p62
F0.1216305761898655
sVthanks_to
p63
F0.12615163072303434
sVcolour_consultant
p64
F1.3317911376905536
sVmedia_relation
p65
F7.051704088307831
sVassistant_choreographer
p66
F0.46011506455013673
sVlegal_advisor
p67
F1.1177099578843257
s.