(lp0
(lp1
I91
aI92
aa(lp2
I86
aa(lp3
I85
aI14
aa(lp4
I97
aI84
aa(lp5
I80
aI98
aa(lp6
I97
aI79
aa(lp7
I96
aI78
aa(lp8
I77
aI95
aa(lp9
I75
aI79
aa(lp10
I73
aI76
aI95
aa(lp11
I72
aI94
aa(lp12
I99
aI69
aa(lp13
I97
aI68
aa(lp14
I67
aI28
aa(lp15
I66
aI91
aa(lp16
I65
aI89
aa(lp17
I64
aI81
aa(lp18
I96
aI61
aa(lp19
I97
aI60
aa(lp20
I98
aI59
aa(lp21
I58
aI60
aa(lp22
I57
aI91
aa(lp23
I82
aI51
aI55
aa(lp24
I54
aI63
aa(lp25
I53
aI69
aa(lp26
I80
aI52
aa(lp27
I83
aI51
aa(lp28
I72
aI50
aa(lp29
I49
aI97
aa(lp30
I48
aI56
aI87
aa(lp31
I64
aI47
aa(lp32
I94
aI46
aa(lp33
I44
aI93
aa(lp34
I43
aI77
aa(lp35
I42
aI66
aa(lp36
I41
aI87
aa(lp37
I40
aI84
aa(lp38
I74
aI39
aa(lp39
I97
aI38
aa(lp40
I4
aI37
aa(lp41
I28
aI36
aa(lp42
I97
aI34
aa(lp43
I33
aI92
aa(lp44
I32
aI87
aa(lp45
I39
aI31
aa(lp46
I30
aI15
aa(lp47
I28
aI69
aa(lp48
I90
aI27
aa(lp49
I80
aI26
aa(lp50
I25
aI15
aa(lp51
I24
aI6
aa(lp52
I81
aI76
aI23
aa(lp53
I22
aI79
aa(lp54
I98
aI21
aa(lp55
I52
aI20
aa(lp56
I18
aI19
aI78
aa(lp57
I18
aI93
aa(lp58
I96
aI17
aa(lp59
I16
aI71
aa(lp60
I97
aI15
aa(lp61
I89
aI14
aa(lp62
I92
aI13
aa(lp63
I40
aI12
aa(lp64
I48
aI11
aI87
aa(lp65
I10
aI95
aa(lp66
I9
aI75
aa(lp67
I8
aI88
aa(lp68
I46
aI6
aa(lp69
I72
aI4
aa(lp70
I3
aI62
aa(lp71
I2
aI99
aa(lp72
I1
aI70
aa(lp73
I0
aI97
aa.