(dp0
I0
(dp1
I0
(lp2
F2.0000000000000004
aF2.0000000000000004
asI1
(lp3
F0.0
aF2.0000000000000004
asI2
(lp4
F0.0
aF2.0
asI3
(lp5
F0.0
aF2.0
asI4
(lp6
F0.0
aF2.0
asI5
(lp7
F1.2157525172231054
aF1.9926470588235292
asI6
(lp8
F0.0
aF2.0
asI7
(lp9
F0.0
aF2.0000000000000004
asI8
(lp10
F0.0
aF2.0
asI9
(lp11
F0.0
aF2.0
asI10
(lp12
F0.0
aF1.9999999999999998
asI11
(lp13
F0.0
aF2.0
asI12
(lp14
F0.0
aF1.9930069930069931
asI13
(lp15
F0.0
aF2.0000000000000004
asI14
(lp16
F0.0
aF2.0
asI15
(lp17
F0.0
aF2.0
asI16
(lp18
F0.0
aF2.0
asI17
(lp19
F0.0
aF1.996815286624204
asI18
(lp20
F0.0
aF2.0
asI19
(lp21
F0.0
aF2.0000000000000004
asI20
(lp22
F0.0
aF1.9942528735632186
asI21
(lp23
F0.0
aF1.9948717948717947
asI22
(lp24
F0.0
aF2.0000000000000004
asI23
(lp25
F0.0
aF2.0
asI24
(lp26
F0.0
aF2.0
asI25
(lp27
F0.0
aF2.0
asI26
(lp28
F0.0
aF2.0
asI27
(lp29
F0.0
aF2.0
asI28
(lp30
F0.0
aF2.0
asI29
(lp31
F0.0
aF1.9926470588235297
asI30
(lp32
F0.0
aF2.0000000000000004
asI31
(lp33
F0.0
aF2.0
asI32
(lp34
F0.0
aF2.0
asI33
(lp35
F0.0
aF2.0
asI34
(lp36
F0.0
aF2.0
asI35
(lp37
F0.0
aF2.0
asI36
(lp38
F0.0
aF2.0000000000000004
asI37
(lp39
F0.0
aF2.0
asI38
(lp40
F0.0
aF2.0
asI39
(lp41
F0.0
aF1.9999999999999998
asI40
(lp42
F0.0
aF2.0
asI41
(lp43
F0.0
aF2.0
asI42
(lp44
F0.0
aF1.996825396825397
asI43
(lp45
F0.0
aF2.0
asI44
(lp46
F0.0
aF1.995594713656388
asI45
(lp47
F0.0
aF2.0
asI46
(lp48
F0.0
aF2.0
asI47
(lp49
F0.0
aF2.0000000000000004
asI48
(lp50
F0.0
aF2.0000000000000004
asI49
(lp51
F0.0
aF2.0000000000000004
asI50
(lp52
F0.0
aF2.0
asI51
(lp53
F1.4583995760466348
aF2.0
asI52
(lp54
F0.0
aF2.0000000000000004
asI53
(lp55
F0.0
aF1.9917355371900825
asI54
(lp56
F0.0
aF2.0
asI55
(lp57
F0.0
aF2.0
asI56
(lp58
F0.0
aF1.996951219512195
asI57
(lp59
F0.0787406623705556
aF2.0000000000000004
asI58
(lp60
F0.0
aF1.9999999999999998
asI59
(lp61
F0.0
aF1.9999999999999998
asI60
(lp62
F0.0
aF2.0000000000000004
asI61
(lp63
F0.0
aF2.0
asI62
(lp64
F0.0
aF1.9999999999999998
asI63
(lp65
F0.0
aF2.0
asI64
(lp66
F0.0
aF2.0
asI65
(lp67
F0.0
aF1.9935483870967745
asI66
(lp68
F0.0
aF2.0
asI67
(lp69
F0.0
aF2.0
asI68
(lp70
F0.0
aF1.9918699186991873
asI69
(lp71
F0.0
aF2.0
asI70
(lp72
F0.0
aF1.9999999999999998
asI71
(lp73
F0.0
aF2.0
asI72
(lp74
F0.0
aF2.0
asI73
(lp75
F0.0
aF2.0
asI74
(lp76
F0.0
aF2.0
asI75
(lp77
F0.0
aF2.0
asI76
(lp78
F0.0
aF2.0
asI77
(lp79
F0.0
aF1.9999999999999998
asI78
(lp80
F0.0
aF1.9925373134328357
asI79
(lp81
F0.0
aF2.0
asI80
(lp82
F0.0
aF1.993421052631579
asI81
(lp83
F1.4302874302874304
aF1.9999999999999998
asI82
(lp84
F0.0
aF1.9951456310679614
asI83
(lp85
F0.0
aF1.9999999999999998
asI84
(lp86
F0.0
aF1.9999999999999998
asI85
(lp87
F0.0
aF1.9938650306748467
asI86
(lp88
F0.0
aF2.0000000000000004
asI87
(lp89
F0.0
aF2.0
asI88
(lp90
F0.0
aF2.0000000000000004
asI89
(lp91
F0.0
aF1.9999999999999998
asI90
(lp92
F0.0
aF1.9999999999999996
asI91
(lp93
F0.0
aF2.0
asI92
(lp94
F0.0
aF2.0
asI93
(lp95
F0.0
aF1.9980879541108985
asI94
(lp96
F0.0
aF2.0
asI95
(lp97
F0.0
aF1.9999999999999998
asI96
(lp98
F0.0
aF2.0
asI97
(lp99
F1.2462462462462462
aF2.0
asI98
(lp100
F0.0
aF2.0000000000000004
asI99
(lp101
F0.0
aF2.0
assI1
(dp102
I1
(lp103
F1.9898989898989896
aF1.9898989898989896
asI2
(lp104
F0.0
aF2.0000000000000004
asI3
(lp105
F0.0
aF2.0
asI4
(lp106
F0.0
aF2.0
asI5
(lp107
F0.0
aF1.9926470588235292
asI6
(lp108
F0.0
aF1.995689655172414
asI7
(lp109
F0.0
aF2.0
asI8
(lp110
F0.0
aF2.0000000000000004
asI9
(lp111
F0.0
aF2.0
asI10
(lp112
F0.0
aF2.0
asI11
(lp113
F0.0
aF1.9909909909909909
asI12
(lp114
F0.048174048174048176
aF2.0
asI13
(lp115
F1.2130528586839264
aF2.0
asI14
(lp116
F0.0
aF2.0
asI15
(lp117
F0.0
aF2.0
asI16
(lp118
F0.0
aF2.0
asI17
(lp119
F0.0
aF1.9999999999999998
asI18
(lp120
F0.0
aF1.9968652037617556
asI19
(lp121
F0.0
aF2.0
asI20
(lp122
F0.0
aF2.0
asI21
(lp123
F0.0
aF1.994871794871795
asI22
(lp124
F0.0
aF2.0
asI23
(lp125
F0.0
aF2.0
asI24
(lp126
F0.0
aF2.0000000000000004
asI25
(lp127
F0.0
aF2.0
asI26
(lp128
F0.0
aF2.0000000000000004
asI27
(lp129
F0.0
aF1.9939024390243902
asI28
(lp130
F0.0
aF1.9999999999999998
asI29
(lp131
F0.0
aF1.9926470588235297
asI30
(lp132
F0.0
aF1.9963636363636363
asI31
(lp133
F0.0
aF2.0
asI32
(lp134
F0.0
aF1.9943502824858763
asI33
(lp135
F0.0
aF2.0
asI34
(lp136
F0.0
aF2.0
asI35
(lp137
F0.0
aF1.9943502824858756
asI36
(lp138
F0.0
aF1.9999999999999998
asI37
(lp139
F0.0
aF2.0000000000000004
asI38
(lp140
F0.0
aF2.0
asI39
(lp141
F0.0
aF1.9949494949494948
asI40
(lp142
F0.0
aF2.0000000000000004
asI41
(lp143
F0.0
aF2.0
asI42
(lp144
F0.0
aF2.0000000000000004
asI43
(lp145
F0.0
aF1.9999999999999998
asI44
(lp146
F0.0
aF1.9955947136563874
asI45
(lp147
F0.0
aF2.0
asI46
(lp148
F0.0
aF2.0
asI47
(lp149
F0.0
aF2.0
asI48
(lp150
F0.0
aF2.0000000000000004
asI49
(lp151
F1.1605118711228037
aF2.000000000000001
asI50
(lp152
F0.0
aF1.994949494949495
asI51
(lp153
F1.3303624480095069
aF2.0
asI52
(lp154
F0.0
aF2.0000000000000004
asI53
(lp155
F0.0
aF2.0
asI54
(lp156
F0.0
aF2.0
asI55
(lp157
F0.0
aF1.9999999999999998
asI56
(lp158
F0.0
aF1.9999999999999998
asI57
(lp159
F0.0
aF2.0000000000000004
asI58
(lp160
F0.0
aF2.0
asI59
(lp161
F0.0
aF2.0000000000000004
asI60
(lp162
F0.0
aF2.0
asI61
(lp163
F0.0
aF2.0
asI62
(lp164
F0.0
aF1.9999999999999998
asI63
(lp165
F0.0
aF2.0
asI64
(lp166
F0.0
aF1.9999999999999998
asI65
(lp167
F0.0
aF1.993548387096774
asI66
(lp168
F0.0
aF1.9999999999999998
asI67
(lp169
F0.0
aF1.9999999999999998
asI68
(lp170
F0.0
aF2.0
asI69
(lp171
F0.0
aF1.9999999999999996
asI70
(lp172
F1.0887334887334887
aF2.0
asI71
(lp173
F0.0
aF2.0000000000000004
asI72
(lp174
F0.0
aF2.0
asI73
(lp175
F0.0
aF2.0
asI74
(lp176
F0.0
aF2.0
asI75
(lp177
F0.0
aF1.9949494949494953
asI76
(lp178
F0.0
aF1.9808917197452227
asI77
(lp179
F0.0
aF1.9999999999999996
asI78
(lp180
F0.0
aF1.992537313432836
asI79
(lp181
F0.0
aF1.9999999999999998
asI80
(lp182
F0.0
aF1.9817916002126528
asI81
(lp183
F0.0
aF2.0000000000000004
asI82
(lp184
F0.0
aF2.0
asI83
(lp185
F0.0
aF2.0
asI84
(lp186
F0.0
aF2.0
asI85
(lp187
F0.0
aF1.9938650306748464
asI86
(lp188
F0.0
aF1.9999999999999998
asI87
(lp189
F0.0
aF2.0
asI88
(lp190
F0.3464846484648465
aF2.0
asI89
(lp191
F0.0
aF2.0000000000000004
asI90
(lp192
F0.0
aF1.9999999999999998
asI91
(lp193
F0.0
aF2.0
asI92
(lp194
F0.0
aF2.0
asI93
(lp195
F0.0
aF1.9961759082217974
asI94
(lp196
F0.0
aF1.9928057553956833
asI95
(lp197
F0.0
aF2.0
asI96
(lp198
F0.0
aF2.0
asI97
(lp199
F0.0
aF2.0
asI98
(lp200
F0.0
aF2.0000000000000004
asI99
(lp201
F0.0
aF2.0
assI2
(dp202
I2
(lp203
F2.0
aF2.0
asI3
(lp204
F0.0
aF2.0
asI4
(lp205
F0.0
aF1.9999999999999998
asI5
(lp206
F0.0
aF1.9926470588235294
asI6
(lp207
F0.0
aF1.9999999999999998
asI7
(lp208
F0.0
aF2.0000000000000004
asI8
(lp209
F0.0
aF2.0000000000000004
asI9
(lp210
F0.0
aF1.9971428571428573
asI10
(lp211
F0.0
aF2.0000000000000004
asI11
(lp212
F0.0
aF2.0
asI12
(lp213
F0.0
aF1.9930069930069927
asI13
(lp214
F0.0
aF2.0000000000000004
asI14
(lp215
F0.0
aF2.0000000000000004
asI15
(lp216
F0.0
aF1.9999999999999996
asI16
(lp217
F0.0
aF1.9999999999999998
asI17
(lp218
F0.0
aF1.996815286624204
asI18
(lp219
F0.0
aF1.9968652037617558
asI19
(lp220
F0.0
aF2.0
asI20
(lp221
F0.0
aF1.9999999999999998
asI21
(lp222
F0.03435279579857893
aF1.9948717948717953
asI22
(lp223
F0.0
aF1.9999999999999998
asI23
(lp224
F0.0
aF2.0
asI24
(lp225
F0.0
aF2.0
asI25
(lp226
F0.0
aF2.0
asI26
(lp227
F0.0
aF1.9912286508672048
asI27
(lp228
F0.0
aF2.0000000000000004
asI28
(lp229
F0.25207251022438376
aF2.0
asI29
(lp230
F0.0
aF2.0000000000000004
asI30
(lp231
F0.0
aF2.0
asI31
(lp232
F0.0
aF1.9937106918238996
asI32
(lp233
F0.0
aF1.9943502824858759
asI33
(lp234
F0.0
aF2.0
asI34
(lp235
F0.0
aF2.0
asI35
(lp236
F0.0
aF1.9943502824858754
asI36
(lp237
F0.0
aF2.0000000000000004
asI37
(lp238
F0.0
aF2.0
asI38
(lp239
F0.0
aF1.9964664310954068
asI39
(lp240
F0.0
aF1.9999999999999998
asI40
(lp241
F0.0
aF2.0
asI41
(lp242
F0.0
aF1.9999999999999998
asI42
(lp243
F0.0
aF1.9968253968253966
asI43
(lp244
F0.0
aF1.9999999999999998
asI44
(lp245
F0.0
aF1.9955947136563879
asI45
(lp246
F0.0
aF2.0
asI46
(lp247
F0.0
aF2.0
asI47
(lp248
F0.0
aF1.9999999999999998
asI48
(lp249
F0.0
aF2.0
asI49
(lp250
F0.0
aF2.0
asI50
(lp251
F0.0
aF2.0
asI51
(lp252
F0.0
aF1.9999999999999996
asI52
(lp253
F0.06547569588699625
aF1.9931034482758623
asI53
(lp254
F0.0
aF2.0
asI54
(lp255
F0.0
aF2.0
asI55
(lp256
F0.0
aF2.0
asI56
(lp257
F0.0
aF1.9969512195121952
asI57
(lp258
F0.0
aF2.0
asI58
(lp259
F1.373074908328968
aF1.9999999999999996
asI59
(lp260
F0.0
aF2.0
asI60
(lp261
F0.0
aF2.0000000000000004
asI61
(lp262
F0.0
aF2.0
asI62
(lp263
F0.0
aF1.9999999999999998
asI63
(lp264
F0.0
aF1.9999999999999998
asI64
(lp265
F0.0
aF1.9999999999999996
asI65
(lp266
F0.0
aF1.9935483870967743
asI66
(lp267
F0.0
aF1.9999999999999996
asI67
(lp268
F0.0
aF1.9999999999999998
asI68
(lp269
F0.0
aF2.0
asI69
(lp270
F0.0
aF2.0
asI70
(lp271
F0.0
aF2.0
asI71
(lp272
F0.0
aF1.996845425867508
asI72
(lp273
F0.0
aF2.0
asI73
(lp274
F0.0
aF2.0
asI74
(lp275
F0.0
aF2.0
asI75
(lp276
F0.0
aF1.9951219512195126
asI76
(lp277
F0.0
aF2.0
asI77
(lp278
F0.0
aF2.0
asI78
(lp279
F1.143724150332674
aF1.9962686567164183
asI79
(lp280
F0.0
aF1.9999999999999996
asI80
(lp281
F0.0
aF2.0
asI81
(lp282
F0.0
aF2.0
asI82
(lp283
F0.0
aF1.9951456310679612
asI83
(lp284
F0.0
aF2.0
asI84
(lp285
F0.0
aF1.9893617021276593
asI85
(lp286
F0.0
aF1.9999999999999998
asI86
(lp287
F0.0
aF1.9999999999999996
asI87
(lp288
F0.0
aF1.9999999999999998
asI88
(lp289
F0.0
aF2.0
asI89
(lp290
F0.0
aF2.0
asI90
(lp291
F0.0
aF1.9954128440366974
asI91
(lp292
F0.0
aF2.0
asI92
(lp293
F0.0
aF2.0
asI93
(lp294
F0.0
aF1.9961759082217974
asI94
(lp295
F0.0
aF1.9928057553956833
asI95
(lp296
F0.0
aF1.9999999999999996
asI96
(lp297
F0.0
aF2.0
asI97
(lp298
F0.0
aF1.9969969969969972
asI98
(lp299
F0.0
aF2.0
asI99
(lp300
F1.3801029360159083
aF2.0
assI3
(dp301
I3
(lp302
F2.0
aF2.0
asI4
(lp303
F0.0
aF2.0
asI5
(lp304
F0.0
aF1.9852941176470587
asI6
(lp305
F0.0
aF2.0
asI7
(lp306
F0.0
aF1.9949748743718594
asI8
(lp307
F0.0
aF2.0
asI9
(lp308
F0.0
aF1.9971428571428573
asI10
(lp309
F0.0
aF1.9999999999999998
asI11
(lp310
F0.0
aF1.9909909909909904
asI12
(lp311
F0.0
aF1.993006993006993
asI13
(lp312
F0.0
aF2.0000000000000004
asI14
(lp313
F0.0
aF2.0000000000000004
asI15
(lp314
F0.0
aF1.9999999999999998
asI16
(lp315
F0.0
aF2.0
asI17
(lp316
F0.0
aF2.0000000000000004
asI18
(lp317
F0.0
aF2.0
asI19
(lp318
F0.0
aF2.0
asI20
(lp319
F0.0
aF2.0
asI21
(lp320
F0.0
aF1.9948717948717944
asI22
(lp321
F0.0
aF2.0
asI23
(lp322
F0.0
aF2.0
asI24
(lp323
F0.0
aF2.0000000000000004
asI25
(lp324
F0.0
aF2.0
asI26
(lp325
F0.0
aF1.9972527472527473
asI27
(lp326
F0.0
aF1.9939024390243905
asI28
(lp327
F0.0
aF2.0000000000000004
asI29
(lp328
F0.0
aF1.9926470588235294
asI30
(lp329
F0.0
aF1.9963636363636361
asI31
(lp330
F0.0
aF2.0
asI32
(lp331
F0.0
aF2.0
asI33
(lp332
F0.0
aF2.0
asI34
(lp333
F0.0
aF1.9999999999999998
asI35
(lp334
F0.0
aF2.0
asI36
(lp335
F0.0
aF2.0000000000000004
asI37
(lp336
F0.0
aF2.0
asI38
(lp337
F0.0
aF1.9964664310954068
asI39
(lp338
F0.0
aF1.9999999999999998
asI40
(lp339
F0.0
aF2.0000000000000004
asI41
(lp340
F0.0
aF1.9999999999999998
asI42
(lp341
F0.0
aF1.9968253968253966
asI43
(lp342
F0.0
aF2.0
asI44
(lp343
F0.0
aF1.9955947136563879
asI45
(lp344
F0.0
aF2.0
asI46
(lp345
F0.0
aF2.0
asI47
(lp346
F0.0
aF2.0
asI48
(lp347
F0.0
aF2.0000000000000004
asI49
(lp348
F0.17375253066571394
aF2.0
asI50
(lp349
F0.0
aF2.0
asI51
(lp350
F0.0
aF2.0
asI52
(lp351
F0.0
aF1.9931034482758625
asI53
(lp352
F0.0
aF2.0000000000000004
asI54
(lp353
F0.0
aF2.0000000000000004
asI55
(lp354
F0.0
aF2.0
asI56
(lp355
F0.0
aF1.9939024390243905
asI57
(lp356
F0.0
aF2.0000000000000004
asI58
(lp357
F0.0
aF1.9999999999999996
asI59
(lp358
F0.16733832277873728
aF2.0
asI60
(lp359
F1.336645588678109
aF1.9999999999999998
asI61
(lp360
F0.0
aF2.0000000000000004
asI62
(lp361
F1.0444987111653778
aF1.9999999999999998
asI63
(lp362
F0.0
aF2.0
asI64
(lp363
F0.0
aF2.0
asI65
(lp364
F0.0
aF1.9935483870967747
asI66
(lp365
F0.0
aF1.9999999999999998
asI67
(lp366
F0.0
aF2.0
asI68
(lp367
F0.0
aF2.0
asI69
(lp368
F0.0
aF2.0
asI70
(lp369
F0.0
aF1.9999999999999998
asI71
(lp370
F0.0
aF2.0
asI72
(lp371
F0.0
aF2.0
asI73
(lp372
F0.0
aF2.0000000000000004
asI74
(lp373
F0.0
aF2.0000000000000004
asI75
(lp374
F0.0
aF2.0
asI76
(lp375
F0.0
aF2.0000000000000004
asI77
(lp376
F0.0
aF2.0
asI78
(lp377
F0.0
aF1.996268656716418
asI79
(lp378
F0.0
aF2.0
asI80
(lp379
F0.0
aF1.993421052631579
asI81
(lp380
F0.0
aF1.996031746031746
asI82
(lp381
F0.0
aF1.9951456310679614
asI83
(lp382
F0.0
aF2.0000000000000004
asI84
(lp383
F0.0
aF1.9893617021276593
asI85
(lp384
F0.0
aF1.9938650306748462
asI86
(lp385
F0.0
aF2.0
asI87
(lp386
F0.0
aF2.0
asI88
(lp387
F0.0
aF2.0
asI89
(lp388
F0.0
aF1.9999999999999996
asI90
(lp389
F0.0
aF1.9954128440366972
asI91
(lp390
F0.0
aF2.0000000000000004
asI92
(lp391
F0.0
aF1.9999999999999996
asI93
(lp392
F0.0
aF1.9961759082217974
asI94
(lp393
F0.0
aF2.0000000000000004
asI95
(lp394
F0.0
aF2.0
asI96
(lp395
F0.0
aF2.0000000000000004
asI97
(lp396
F0.0
aF1.9999999999999998
asI98
(lp397
F0.0
aF1.9999999999999998
asI99
(lp398
F0.0
aF2.0
assI4
(dp399
I4
(lp400
F1.9999999999999996
aF1.9999999999999996
asI5
(lp401
F0.0
aF1.992647058823529
asI6
(lp402
F0.0
aF1.9999999999999998
asI7
(lp403
F0.0
aF2.0
asI8
(lp404
F0.0
aF2.0
asI9
(lp405
F0.0
aF1.9971428571428573
asI10
(lp406
F0.0
aF2.0
asI11
(lp407
F0.0
aF1.9999999999999998
asI12
(lp408
F0.0
aF1.9999999999999998
asI13
(lp409
F1.086505552839282
aF2.0
asI14
(lp410
F0.0
aF2.0000000000000004
asI15
(lp411
F0.0
aF2.0
asI16
(lp412
F0.0
aF2.0
asI17
(lp413
F0.0
aF2.0
asI18
(lp414
F0.0
aF1.9968652037617556
asI19
(lp415
F0.0
aF2.0
asI20
(lp416
F0.0
aF2.0
asI21
(lp417
F0.0
aF1.9948717948717944
asI22
(lp418
F0.0
aF1.9999999999999996
asI23
(lp419
F0.0
aF2.0
asI24
(lp420
F0.0
aF2.0
asI25
(lp421
F0.0
aF2.0
asI26
(lp422
F0.0
aF1.9999999999999998
asI27
(lp423
F0.0
aF1.99390243902439
asI28
(lp424
F0.0
aF2.0
asI29
(lp425
F0.0
aF1.9999999999999996
asI30
(lp426
F0.0
aF2.0
asI31
(lp427
F0.0
aF2.0
asI32
(lp428
F1.2329593951957079
aF1.9943502824858752
asI33
(lp429
F0.0
aF1.9999999999999998
asI34
(lp430
F0.0
aF1.9999999999999998
asI35
(lp431
F0.0
aF2.0000000000000004
asI36
(lp432
F0.0
aF2.0
asI37
(lp433
F1.017951835714527
aF2.0000000000000004
asI38
(lp434
F0.0
aF2.0
asI39
(lp435
F0.03041413023427412
aF1.9999999999999996
asI40
(lp436
F0.0
aF2.0
asI41
(lp437
F0.0
aF1.9999999999999998
asI42
(lp438
F0.0
aF1.9964028776978413
asI43
(lp439
F0.0
aF1.9999999999999998
asI44
(lp440
F0.0
aF1.9955947136563879
asI45
(lp441
F0.0
aF2.0
asI46
(lp442
F0.0
aF2.0
asI47
(lp443
F0.0
aF2.0
asI48
(lp444
F0.0
aF2.0000000000000004
asI49
(lp445
F0.0
aF2.0
asI50
(lp446
F0.0
aF2.0
asI51
(lp447
F0.0
aF2.0
asI52
(lp448
F0.0
aF2.0
asI53
(lp449
F0.0
aF1.9999999999999998
asI54
(lp450
F0.0
aF1.9999999999999998
asI55
(lp451
F0.0
aF1.9964028776978417
asI56
(lp452
F0.0
aF1.9999999999999998
asI57
(lp453
F0.0
aF1.9964028776978417
asI58
(lp454
F0.0
aF1.9999999999999996
asI59
(lp455
F0.0
aF2.0
asI60
(lp456
F0.0
aF1.9999999999999998
asI61
(lp457
F0.0
aF2.0
asI62
(lp458
F0.0
aF1.9999999999999998
asI63
(lp459
F0.0
aF1.9999999999999998
asI64
(lp460
F0.0
aF1.9999999999999998
asI65
(lp461
F0.0
aF2.0
asI66
(lp462
F0.0
aF1.9999999999999996
asI67
(lp463
F0.0
aF1.9921259842519685
asI68
(lp464
F0.0
aF2.0
asI69
(lp465
F0.0
aF1.9999999999999998
asI70
(lp466
F0.0
aF1.9999999999999998
asI71
(lp467
F0.0
aF2.0
asI72
(lp468
F1.1412308355562741
aF2.0
asI73
(lp469
F0.0
aF1.9999999999999998
asI74
(lp470
F0.0
aF2.0
asI75
(lp471
F0.0
aF1.9999999999999998
asI76
(lp472
F0.0
aF1.9999999999999993
asI77
(lp473
F0.0
aF2.0
asI78
(lp474
F0.0
aF1.9962686567164178
asI79
(lp475
F0.0
aF1.9964028776978415
asI80
(lp476
F0.0
aF2.0
asI81
(lp477
F0.0
aF1.9924346237295878
asI82
(lp478
F0.0
aF1.995145631067961
asI83
(lp479
F0.0
aF1.9999999999999998
asI84
(lp480
F0.0
aF1.9999999999999998
asI85
(lp481
F0.0
aF1.9938650306748464
asI86
(lp482
F0.0
aF2.0
asI87
(lp483
F0.0
aF1.9999999999999998
asI88
(lp484
F0.0
aF2.0
asI89
(lp485
F0.0
aF1.9999999999999998
asI90
(lp486
F0.0
aF1.9954128440366972
asI91
(lp487
F0.0
aF1.9964028776978417
asI92
(lp488
F0.0
aF1.9999999999999996
asI93
(lp489
F0.0
aF1.9961759082217971
asI94
(lp490
F0.0
aF1.9928057553956835
asI95
(lp491
F0.0
aF1.9999999999999998
asI96
(lp492
F0.0
aF2.0
asI97
(lp493
F0.0
aF2.0
asI98
(lp494
F0.0
aF1.9999999999999998
asI99
(lp495
F0.0
aF2.0
assI5
(dp496
I5
(lp497
F1.9705882352941175
aF1.9705882352941175
asI6
(lp498
F0.0
aF2.0
asI7
(lp499
F0.0
aF2.0
asI8
(lp500
F0.0
aF1.9926470588235294
asI9
(lp501
F0.0
aF1.9971428571428573
asI10
(lp502
F0.0
aF1.9852941176470584
asI11
(lp503
F0.0
aF1.9852941176470589
asI12
(lp504
F0.0
aF1.9852941176470584
asI13
(lp505
F0.0
aF1.9852941176470589
asI14
(lp506
F0.0
aF1.9926470588235294
asI15
(lp507
F0.0
aF1.9852941176470584
asI16
(lp508
F0.0
aF1.9999999999999998
asI17
(lp509
F0.0
aF1.9926470588235294
asI18
(lp510
F0.0
aF2.0000000000000004
asI19
(lp511
F0.0
aF1.9926470588235292
asI20
(lp512
F0.0
aF1.9942528735632181
asI21
(lp513
F0.0
aF1.9948717948717947
asI22
(lp514
F0.0
aF1.992647058823529
asI23
(lp515
F0.0
aF1.9999999999999996
asI24
(lp516
F0.0
aF2.0
asI25
(lp517
F0.0
aF1.9852941176470587
asI26
(lp518
F0.0
aF1.9898998060762765
asI27
(lp519
F0.0
aF1.9999999999999998
asI28
(lp520
F0.0
aF1.992647058823529
asI29
(lp521
F1.1029411764705883
aF1.9705882352941175
asI30
(lp522
F0.0
aF1.9926470588235292
asI31
(lp523
F0.0
aF1.9926470588235292
asI32
(lp524
F0.0
aF1.9869973413094046
asI33
(lp525
F0.0
aF1.9926470588235294
asI34
(lp526
F0.0
aF1.9999999999999998
asI35
(lp527
F0.0
aF1.9852941176470589
asI36
(lp528
F0.0
aF1.9852941176470589
asI37
(lp529
F0.0
aF1.9926470588235294
asI38
(lp530
F0.0
aF2.0
asI39
(lp531
F0.0
aF1.9852941176470589
asI40
(lp532
F0.0
aF1.9852941176470589
asI41
(lp533
F0.0
aF1.9926470588235292
asI42
(lp534
F0.0
aF1.989472455648926
asI43
(lp535
F0.0
aF1.9852941176470587
asI44
(lp536
F0.0
aF1.9926470588235292
asI45
(lp537
F0.0
aF1.9926470588235292
asI46
(lp538
F0.0
aF2.0
asI47
(lp539
F0.0
aF1.992647058823529
asI48
(lp540
F0.0
aF1.9852941176470593
asI49
(lp541
F0.0
aF1.9894316247399275
asI50
(lp542
F0.0
aF1.9999999999999996
asI51
(lp543
F0.0
aF1.9926470588235288
asI52
(lp544
F0.0
aF1.9926470588235292
asI53
(lp545
F0.0
aF1.9926470588235292
asI54
(lp546
F0.0
aF1.9926470588235294
asI55
(lp547
F0.0
aF1.9926470588235294
asI56
(lp548
F0.0
aF1.9939024390243905
asI57
(lp549
F0.0
aF2.0
asI58
(lp550
F0.0
aF1.9926470588235288
asI59
(lp551
F0.0
aF1.9926470588235299
asI60
(lp552
F0.0
aF1.9852941176470587
asI61
(lp553
F0.0
aF1.9999999999999998
asI62
(lp554
F0.0
aF1.9926470588235292
asI63
(lp555
F0.0
aF1.9926470588235292
asI64
(lp556
F1.565794499618029
aF1.992647058823529
asI65
(lp557
F0.0
aF1.9861954459203037
asI66
(lp558
F0.0
aF1.9852941176470587
asI67
(lp559
F0.0
aF1.9926470588235292
asI68
(lp560
F0.0
aF2.0
asI69
(lp561
F0.0
aF1.9999999999999998
asI70
(lp562
F0.0
aF1.9926470588235294
asI71
(lp563
F0.0
aF1.9926470588235294
asI72
(lp564
F0.0
aF1.9926470588235294
asI73
(lp565
F0.0
aF1.9999999999999998
asI74
(lp566
F0.0
aF1.9852941176470589
asI75
(lp567
F0.0
aF1.9926470588235294
asI76
(lp568
F0.0
aF1.992647058823529
asI77
(lp569
F0.0
aF2.0
asI78
(lp570
F0.0
aF1.9925373134328357
asI79
(lp571
F0.0
aF1.9896259107872756
asI80
(lp572
F0.0
aF1.9926470588235294
asI81
(lp573
F0.0
aF1.9926470588235292
asI82
(lp574
F0.0
aF1.995145631067961
asI83
(lp575
F0.0
aF2.0
asI84
(lp576
F0.0
aF1.992647058823529
asI85
(lp577
F0.0
aF1.9926470588235292
asI86
(lp578
F0.0
aF1.9926470588235292
asI87
(lp579
F0.0
aF1.992647058823529
asI88
(lp580
F0.0
aF2.0
asI89
(lp581
F0.0
aF1.9852941176470587
asI90
(lp582
F0.0
aF2.0
asI91
(lp583
F0.0
aF1.9926470588235294
asI92
(lp584
F0.0
aF1.9875450180072027
asI93
(lp585
F0.0
aF1.9980879541108987
asI94
(lp586
F0.0
aF1.9782585696148962
asI95
(lp587
F0.0
aF1.9999999999999996
asI96
(lp588
F0.0
aF1.9926470588235292
asI97
(lp589
F0.0
aF1.9926470588235294
asI98
(lp590
F0.0
aF1.9926470588235294
asI99
(lp591
F0.0
aF1.9852941176470584
assI6
(dp592
I6
(lp593
F1.9999999999999998
aF1.9999999999999998
asI7
(lp594
F0.0
aF1.9949748743718594
asI8
(lp595
F0.0
aF2.0
asI9
(lp596
F0.0
aF1.9971428571428576
asI10
(lp597
F0.0
aF2.0
asI11
(lp598
F0.0
aF1.995689655172414
asI12
(lp599
F0.0
aF1.9886966481794066
asI13
(lp600
F0.0
aF1.9956896551724137
asI14
(lp601
F0.0
aF2.0
asI15
(lp602
F0.0
aF1.9999999999999998
asI16
(lp603
F0.0
aF2.0
asI17
(lp604
F0.0
aF2.0
asI18
(lp605
F0.0
aF2.0
asI19
(lp606
F0.0
aF1.9999999999999996
asI20
(lp607
F0.0
aF2.0
asI21
(lp608
F0.0
aF1.9948717948717951
asI22
(lp609
F0.0
aF2.0
asI23
(lp610
F0.0
aF1.9999999999999998
asI24
(lp611
F1.2032169890664424
aF2.0
asI25
(lp612
F0.0
aF1.9956896551724137
asI26
(lp613
F0.0
aF2.0
asI27
(lp614
F1.4227291841883938
aF2.0
asI28
(lp615
F0.0
aF1.9956896551724135
asI29
(lp616
F0.0
aF2.0
asI30
(lp617
F0.0
aF2.0
asI31
(lp618
F0.0
aF1.9956896551724135
asI32
(lp619
F0.0
aF2.0
asI33
(lp620
F0.0
aF2.0
asI34
(lp621
F0.0
aF1.9956896551724137
asI35
(lp622
F0.0
aF2.0
asI36
(lp623
F0.0
aF2.0
asI37
(lp624
F0.0
aF1.9999999999999998
asI38
(lp625
F0.022754965273546972
aF2.0
asI39
(lp626
F1.1005747126436782
aF2.0
asI40
(lp627
F0.0
aF2.0
asI41
(lp628
F0.0
aF1.9999999999999998
asI42
(lp629
F0.0
aF1.9968253968253966
asI43
(lp630
F0.0
aF1.9956896551724135
asI44
(lp631
F0.0
aF1.9955947136563876
asI45
(lp632
F0.0
aF2.0
asI46
(lp633
F1.4397716682199442
aF1.9956896551724137
asI47
(lp634
F0.0
aF2.0
asI48
(lp635
F0.0
aF2.0
asI49
(lp636
F0.062257456480762835
aF2.0
asI50
(lp637
F0.0
aF1.9999999999999996
asI51
(lp638
F0.0
aF2.0
asI52
(lp639
F0.0
aF2.0
asI53
(lp640
F0.0
aF2.0
asI54
(lp641
F0.0
aF1.9999999999999998
asI55
(lp642
F0.0
aF2.0
asI56
(lp643
F0.0
aF2.0
asI57
(lp644
F0.0
aF1.9964412811387902
asI58
(lp645
F0.0
aF2.0
asI59
(lp646
F0.0
aF1.995689655172414
asI60
(lp647
F0.0
aF2.0
asI61
(lp648
F0.0
aF1.9999999999999998
asI62
(lp649
F0.0
aF2.0
asI63
(lp650
F0.0
aF1.9999999999999998
asI64
(lp651
F0.0
aF2.0000000000000004
asI65
(lp652
F0.0
aF2.0000000000000004
asI66
(lp653
F0.25380194518125554
aF2.0
asI67
(lp654
F0.0
aF2.0
asI68
(lp655
F0.0
aF1.9956896551724135
asI69
(lp656
F0.0
aF2.0
asI70
(lp657
F0.0
aF1.995689655172414
asI71
(lp658
F0.0
aF2.0
asI72
(lp659
F0.0
aF2.0
asI73
(lp660
F0.0
aF1.9999999999999998
asI74
(lp661
F0.0
aF2.0
asI75
(lp662
F0.0
aF1.9951219512195124
asI76
(lp663
F0.0
aF1.9999999999999998
asI77
(lp664
F0.0
aF1.9945652173913042
asI78
(lp665
F0.0
aF1.9962686567164178
asI79
(lp666
F0.0
aF1.9999999999999998
asI80
(lp667
F0.0
aF1.9999999999999998
asI81
(lp668
F0.0
aF1.995689655172414
asI82
(lp669
F0.0
aF1.9999999999999998
asI83
(lp670
F0.3208194289951798
aF2.0
asI84
(lp671
F0.0
aF1.9999999999999998
asI85
(lp672
F0.0
aF1.9895546858472601
asI86
(lp673
F0.0
aF1.9956896551724137
asI87
(lp674
F0.0
aF1.9999999999999998
asI88
(lp675
F0.0
aF1.9999999999999998
asI89
(lp676
F0.0
aF1.9956896551724137
asI90
(lp677
F0.0
aF1.9954128440366972
asI91
(lp678
F0.0
aF2.0
asI92
(lp679
F0.0
aF1.9999999999999998
asI93
(lp680
F0.0
aF1.9980879541108987
asI94
(lp681
F0.0
aF1.9999999999999998
asI95
(lp682
F0.0
aF1.9999999999999998
asI96
(lp683
F0.0
aF2.0
asI97
(lp684
F0.0
aF2.0
asI98
(lp685
F0.0
aF1.9922480620155039
asI99
(lp686
F0.0
aF2.0
assI7
(dp687
I7
(lp688
F1.9899497487437188
aF1.9899497487437188
asI8
(lp689
F0.0
aF1.9949748743718594
asI9
(lp690
F0.0
aF1.997142857142857
asI10
(lp691
F0.0
aF2.0
asI11
(lp692
F0.0
aF2.0
asI12
(lp693
F0.0
aF1.9930069930069927
asI13
(lp694
F0.0
aF1.9999999999999996
asI14
(lp695
F0.0
aF2.0
asI15
(lp696
F0.0
aF2.0
asI16
(lp697
F0.0
aF1.9999999999999998
asI17
(lp698
F0.0
aF2.0
asI18
(lp699
F0.0
aF1.9968652037617556
asI19
(lp700
F0.0
aF2.0
asI20
(lp701
F0.0
aF2.0
asI21
(lp702
F0.0
aF1.9948717948717951
asI22
(lp703
F0.0
aF2.0
asI23
(lp704
F0.0
aF2.0
asI24
(lp705
F0.0
aF2.0000000000000004
asI25
(lp706
F0.0
aF1.9949748743718596
asI26
(lp707
F0.0
aF1.997252747252747
asI27
(lp708
F0.0
aF1.9999999999999998
asI28
(lp709
F0.0
aF1.9954128440366972
asI29
(lp710
F0.0
aF1.9926470588235292
asI30
(lp711
F0.0
aF2.0
asI31
(lp712
F1.2909516134129768
aF1.9937106918238994
asI32
(lp713
F0.0
aF1.9943502824858754
asI33
(lp714
F0.0
aF1.9999999999999998
asI34
(lp715
F0.0
aF1.9999999999999998
asI35
(lp716
F0.0
aF1.9999999999999996
asI36
(lp717
F0.0
aF1.9999999999999998
asI37
(lp718
F0.08278481609927572
aF2.0
asI38
(lp719
F0.0
aF2.0
asI39
(lp720
F0.0
aF1.9999999999999998
asI40
(lp721
F0.0
aF2.0
asI41
(lp722
F0.0
aF2.0
asI42
(lp723
F0.0
aF1.9999999999999998
asI43
(lp724
F0.0
aF1.9949748743718592
asI44
(lp725
F0.0
aF1.9955947136563876
asI45
(lp726
F0.0
aF1.9999999999999998
asI46
(lp727
F0.0
aF2.0
asI47
(lp728
F0.0
aF2.0
asI48
(lp729
F0.0
aF2.0
asI49
(lp730
F0.0
aF2.0
asI50
(lp731
F0.0
aF2.0
asI51
(lp732
F0.0
aF1.9999999999999998
asI52
(lp733
F0.0
aF2.0000000000000004
asI53
(lp734
F0.0
aF1.9999999999999996
asI54
(lp735
F0.47730588426000975
aF1.9999999999999998
asI55
(lp736
F0.0
aF2.0
asI56
(lp737
F0.0
aF1.996951219512195
asI57
(lp738
F0.0
aF1.9999999999999998
asI58
(lp739
F0.0
aF2.0
asI59
(lp740
F0.0
aF2.0000000000000004
asI60
(lp741
F0.0
aF1.9999999999999998
asI61
(lp742
F0.0
aF2.0
asI62
(lp743
F0.0
aF1.9999999999999998
asI63
(lp744
F0.0
aF1.9949748743718592
asI64
(lp745
F0.0
aF1.9999999999999996
asI65
(lp746
F0.0
aF1.9935483870967743
asI66
(lp747
F0.0
aF1.9999999999999998
asI67
(lp748
F0.0
aF1.9999999999999996
asI68
(lp749
F0.0
aF1.991869918699187
asI69
(lp750
F0.0
aF1.9949748743718592
asI70
(lp751
F0.0
aF1.9999999999999998
asI71
(lp752
F0.0
aF1.9999999999999998
asI72
(lp753
F0.0
aF2.0
asI73
(lp754
F0.0
aF2.0
asI74
(lp755
F1.4153924703732566
aF1.9946524064171125
asI75
(lp756
F0.0
aF1.9951219512195124
asI76
(lp757
F0.0
aF1.9999999999999998
asI77
(lp758
F1.2912934236399387
aF2.0
asI78
(lp759
F0.0
aF1.9925373134328355
asI79
(lp760
F0.0
aF2.0
asI80
(lp761
F0.0
aF1.993421052631579
asI81
(lp762
F0.0
aF2.0
asI82
(lp763
F0.0
aF2.0
asI83
(lp764
F0.0
aF2.0
asI84
(lp765
F0.0
aF1.9999999999999996
asI85
(lp766
F0.0
aF2.0
asI86
(lp767
F0.0
aF1.9999999999999996
asI87
(lp768
F1.2246246067130908
aF2.0
asI88
(lp769
F0.0
aF2.0
asI89
(lp770
F0.0
aF1.9999999999999998
asI90
(lp771
F0.0
aF1.9954128440366972
asI91
(lp772
F1.293467336683417
aF2.0
asI92
(lp773
F0.0
aF1.9999999999999998
asI93
(lp774
F0.0
aF1.9980879541108982
asI94
(lp775
F0.0
aF1.9928057553956835
asI95
(lp776
F0.0
aF1.9999999999999998
asI96
(lp777
F0.0
aF1.9999999999999996
asI97
(lp778
F0.0
aF2.0
asI98
(lp779
F0.0
aF2.0000000000000004
asI99
(lp780
F0.0
aF1.9949748743718592
assI8
(dp781
I8
(lp782
F1.9999999999999998
aF1.9999999999999998
asI9
(lp783
F0.0
aF1.997142857142857
asI10
(lp784
F0.0
aF2.0
asI11
(lp785
F0.0
aF2.0
asI12
(lp786
F0.0
aF2.0
asI13
(lp787
F0.0
aF2.0
asI14
(lp788
F0.0
aF1.9999999999999998
asI15
(lp789
F0.0
aF2.0
asI16
(lp790
F1.0858911830846063
aF2.0
asI17
(lp791
F0.0
aF2.0
asI18
(lp792
F0.0
aF1.9968652037617556
asI19
(lp793
F0.0
aF2.0
asI20
(lp794
F0.0
aF1.9999999999999998
asI21
(lp795
F0.0
aF2.0
asI22
(lp796
F0.0
aF2.0
asI23
(lp797
F0.0
aF2.0000000000000004
asI24
(lp798
F0.0
aF2.0000000000000004
asI25
(lp799
F0.0
aF2.0
asI26
(lp800
F0.0
aF2.0
asI27
(lp801
F0.0
aF2.0
asI28
(lp802
F0.0
aF2.0
asI29
(lp803
F0.0
aF2.0
asI30
(lp804
F0.0
aF2.0
asI31
(lp805
F0.0
aF1.9937106918238994
asI32
(lp806
F0.0
aF2.0
asI33
(lp807
F1.1657705575147905
aF2.0
asI34
(lp808
F0.0
aF2.0
asI35
(lp809
F0.0
aF2.0
asI36
(lp810
F0.0
aF2.0
asI37
(lp811
F0.0
aF2.0
asI38
(lp812
F0.0
aF2.0
asI39
(lp813
F0.0
aF2.0
asI40
(lp814
F0.0
aF2.0
asI41
(lp815
F0.10898961284230406
aF2.0000000000000004
asI42
(lp816
F0.0
aF2.0
asI43
(lp817
F0.0
aF2.0
asI44
(lp818
F0.0
aF1.995594713656388
asI45
(lp819
F0.0
aF2.0
asI46
(lp820
F0.09610672995942118
aF2.0
asI47
(lp821
F0.2153657121403461
aF2.0
asI48
(lp822
F0.0
aF2.0000000000000004
asI49
(lp823
F0.0
aF2.0000000000000004
asI50
(lp824
F0.0
aF2.0000000000000004
asI51
(lp825
F0.0
aF2.0
asI52
(lp826
F0.0
aF1.993103448275862
asI53
(lp827
F0.0
aF2.0
asI54
(lp828
F0.0
aF1.9999999999999998
asI55
(lp829
F0.0
aF2.0
asI56
(lp830
F0.0
aF2.0
asI57
(lp831
F0.0
aF2.0
asI58
(lp832
F0.0
aF2.0000000000000004
asI59
(lp833
F0.0
aF2.0
asI60
(lp834
F1.312443860982519
aF2.0000000000000004
asI61
(lp835
F0.0
aF2.0
asI62
(lp836
F0.0
aF2.0
asI63
(lp837
F0.0
aF2.0
asI64
(lp838
F0.0
aF2.0
asI65
(lp839
F0.0
aF2.0000000000000004
asI66
(lp840
F1.1038134669862716
aF2.0
asI67
(lp841
F0.0
aF1.9921259842519683
asI68
(lp842
F0.0
aF2.0000000000000004
asI69
(lp843
F0.0
aF2.0
asI70
(lp844
F0.0
aF2.0000000000000004
asI71
(lp845
F0.0
aF2.0
asI72
(lp846
F0.0
aF2.0000000000000004
asI73
(lp847
F0.0
aF2.0
asI74
(lp848
F1.302661677599188
aF2.0
asI75
(lp849
F0.0
aF2.0
asI76
(lp850
F0.0
aF2.0
asI77
(lp851
F0.0
aF2.0000000000000004
asI78
(lp852
F0.0
aF1.9962686567164178
asI79
(lp853
F1.0429721934561762
aF2.0
asI80
(lp854
F0.0
aF2.0
asI81
(lp855
F0.0
aF2.0
asI82
(lp856
F0.08091531670287962
aF1.9951456310679612
asI83
(lp857
F0.0
aF2.0
asI84
(lp858
F0.0
aF2.0
asI85
(lp859
F0.0
aF1.9938650306748467
asI86
(lp860
F0.0
aF2.0
asI87
(lp861
F0.0
aF2.0
asI88
(lp862
F1.239152385493507
aF2.0
asI89
(lp863
F0.0
aF2.0
asI90
(lp864
F0.0
aF2.0
asI91
(lp865
F0.0
aF2.0
asI92
(lp866
F0.0
aF2.0
asI93
(lp867
F0.0
aF1.9961759082217978
asI94
(lp868
F0.0
aF1.985611510791367
asI95
(lp869
F0.0
aF2.0
asI96
(lp870
F0.0
aF2.0
asI97
(lp871
F0.0
aF2.0000000000000004
asI98
(lp872
F0.0
aF2.0
asI99
(lp873
F0.0
aF2.0
assI9
(dp874
I9
(lp875
F1.9942857142857142
aF1.9942857142857142
asI10
(lp876
F0.0
aF1.9971428571428569
asI11
(lp877
F0.0
aF1.9971428571428573
asI12
(lp878
F0.0
aF1.993006993006993
asI13
(lp879
F0.0
aF1.9971428571428573
asI14
(lp880
F1.4802506265664164
aF1.9971428571428573
asI15
(lp881
F0.0
aF1.9971428571428569
asI16
(lp882
F0.0
aF1.9971428571428573
asI17
(lp883
F0.0
aF1.9971428571428576
asI18
(lp884
F0.0
aF1.9940080609046131
asI19
(lp885
F0.0
aF1.9971428571428576
asI20
(lp886
F0.0
aF1.9971428571428578
asI21
(lp887
F0.0
aF1.9920146520146522
asI22
(lp888
F0.0
aF2.0
asI23
(lp889
F0.0
aF2.0
asI24
(lp890
F0.0
aF1.9971428571428573
asI25
(lp891
F0.0
aF2.0
asI26
(lp892
F0.0
aF1.9943956043956041
asI27
(lp893
F0.0
aF1.9910452961672476
asI28
(lp894
F1.1694888597640891
aF2.0
asI29
(lp895
F0.0
aF1.989789915966387
asI30
(lp896
F0.0
aF1.9935064935064934
asI31
(lp897
F0.0
aF1.9971428571428573
asI32
(lp898
F0.0
aF1.991493139628733
asI33
(lp899
F0.0
aF1.9971428571428576
asI34
(lp900
F0.0
aF1.997142857142857
asI35
(lp901
F0.0
aF1.997142857142857
asI36
(lp902
F0.0
aF2.0000000000000004
asI37
(lp903
F0.0
aF1.997142857142857
asI38
(lp904
F0.0
aF1.997142857142857
asI39
(lp905
F0.0
aF1.9971428571428576
asI40
(lp906
F0.0
aF1.9971428571428576
asI41
(lp907
F0.0
aF1.9971428571428576
asI42
(lp908
F0.0
aF1.997142857142857
asI43
(lp909
F0.0
aF1.9971428571428573
asI44
(lp910
F0.0
aF1.992737570799245
asI45
(lp911
F0.0
aF1.9971428571428573
asI46
(lp912
F0.0
aF1.9971428571428569
asI47
(lp913
F0.0
aF1.9971428571428573
asI48
(lp914
F0.07732348111658457
aF1.997142857142857
asI49
(lp915
F0.0
aF1.997142857142857
asI50
(lp916
F0.0
aF1.9971428571428573
asI51
(lp917
F0.0
aF1.997142857142857
asI52
(lp918
F0.0
aF1.9971428571428573
asI53
(lp919
F0.0
aF1.9971428571428576
asI54
(lp920
F0.0
aF1.9971428571428573
asI55
(lp921
F0.0
aF1.997142857142857
asI56
(lp922
F0.06400696864111498
aF1.9940940766550523
asI57
(lp923
F0.0
aF2.0
asI58
(lp924
F0.0
aF1.997142857142857
asI59
(lp925
F0.0
aF2.0
asI60
(lp926
F0.0
aF1.9971428571428576
asI61
(lp927
F0.0
aF1.9971428571428573
asI62
(lp928
F0.0
aF1.9971428571428573
asI63
(lp929
F0.0
aF1.9971428571428573
asI64
(lp930
F0.0587012987012987
aF1.9971428571428573
asI65
(lp931
F0.0
aF1.9906912442396316
asI66
(lp932
F0.0
aF1.997142857142857
asI67
(lp933
F0.0
aF1.9971428571428573
asI68
(lp934
F0.0
aF2.0000000000000004
asI69
(lp935
F0.0
aF1.9971428571428578
asI70
(lp936
F0.0
aF1.997142857142857
asI71
(lp937
F0.0
aF1.9971428571428573
asI72
(lp938
F0.0
aF1.9971428571428573
asI73
(lp939
F0.0
aF1.997142857142857
asI74
(lp940
F0.0
aF1.9971428571428576
asI75
(lp941
F1.0319860627177702
aF2.0
asI76
(lp942
F0.0
aF1.9971428571428573
asI77
(lp943
F0.0
aF1.9971428571428573
asI78
(lp944
F0.0
aF1.9896801705756932
asI79
(lp945
F0.0
aF1.9971428571428573
asI80
(lp946
F0.0
aF1.9971428571428573
asI81
(lp947
F0.0
aF1.9971428571428573
asI82
(lp948
F0.0
aF1.9922884882108183
asI83
(lp949
F0.0
aF1.9971428571428573
asI84
(lp950
F0.0
aF1.997142857142857
asI85
(lp951
F0.0
aF1.991007887817704
asI86
(lp952
F0.0
aF1.997142857142857
asI87
(lp953
F0.0
aF1.997142857142857
asI88
(lp954
F0.0
aF1.9971428571428573
asI89
(lp955
F0.0
aF1.997142857142857
asI90
(lp956
F0.0
aF1.9925557011795545
asI91
(lp957
F0.0
aF1.997142857142857
asI92
(lp958
F0.0
aF1.997142857142857
asI93
(lp959
F0.028636984430483473
aF1.9952308112537558
asI94
(lp960
F0.0
aF1.9899486125385408
asI95
(lp961
F0.15664596273291925
aF1.9971428571428573
asI96
(lp962
F0.0
aF1.9971428571428573
asI97
(lp963
F0.0
aF2.0
asI98
(lp964
F0.0
aF2.0000000000000004
asI99
(lp965
F0.0
aF1.9971428571428576
assI10
(dp966
I10
(lp967
F1.9999999999999996
aF1.9999999999999996
asI11
(lp968
F1.2151741293532337
aF2.0
asI12
(lp969
F0.0
aF1.9999999999999998
asI13
(lp970
F0.0
aF2.0
asI14
(lp971
F0.07680020947892119
aF2.0
asI15
(lp972
F0.0
aF2.0
asI16
(lp973
F0.0
aF2.0
asI17
(lp974
F0.0
aF2.0000000000000004
asI18
(lp975
F0.0
aF2.0
asI19
(lp976
F0.0
aF2.0
asI20
(lp977
F0.0
aF2.0
asI21
(lp978
F0.0
aF1.9948717948717947
asI22
(lp979
F0.0
aF1.9999999999999998
asI23
(lp980
F0.20241185377460524
aF2.0
asI24
(lp981
F0.0
aF2.0000000000000004
asI25
(lp982
F0.0
aF2.0
asI26
(lp983
F0.20985730687223225
aF1.9972527472527473
asI27
(lp984
F0.0
aF1.9939024390243905
asI28
(lp985
F0.0
aF2.0
asI29
(lp986
F0.0
aF1.9926470588235294
asI30
(lp987
F0.0
aF2.0
asI31
(lp988
F0.0
aF1.9937106918238992
asI32
(lp989
F0.0
aF1.9943502824858756
asI33
(lp990
F0.0
aF2.0
asI34
(lp991
F0.0
aF2.0
asI35
(lp992
F0.0
aF1.9999999999999998
asI36
(lp993
F0.0
aF1.9999999999999998
asI37
(lp994
F0.0
aF2.0
asI38
(lp995
F0.0
aF2.0
asI39
(lp996
F0.0
aF2.0
asI40
(lp997
F0.0
aF2.0
asI41
(lp998
F0.0
aF2.0
asI42
(lp999
F0.0
aF1.9968253968253968
asI43
(lp1000
F0.0
aF2.0
asI44
(lp1001
F0.0
aF1.9955947136563876
asI45
(lp1002
F0.0
aF2.0
asI46
(lp1003
F0.0
aF2.0
asI47
(lp1004
F0.0
aF2.0
asI48
(lp1005
F0.0
aF2.0000000000000004
asI49
(lp1006
F0.0
aF1.996784565916399
asI50
(lp1007
F0.0
aF2.0
asI51
(lp1008
F0.0
aF1.9999999999999998
asI52
(lp1009
F0.0
aF2.0
asI53
(lp1010
F0.0
aF1.9999999999999996
asI54
(lp1011
F0.0
aF2.0000000000000004
asI55
(lp1012
F0.0
aF1.9999999999999998
asI56
(lp1013
F0.0
aF1.996951219512195
asI57
(lp1014
F0.0
aF2.0
asI58
(lp1015
F0.0
aF2.0
asI59
(lp1016
F0.0
aF2.0
asI60
(lp1017
F0.0
aF2.0
asI61
(lp1018
F1.139748338598976
aF2.0
asI62
(lp1019
F0.0
aF2.0
asI63
(lp1020
F0.0
aF1.9999999999999998
asI64
(lp1021
F0.0
aF2.0
asI65
(lp1022
F0.0
aF1.9935483870967743
asI66
(lp1023
F0.0
aF1.9999999999999996
asI67
(lp1024
F0.0
aF1.9999999999999998
asI68
(lp1025
F0.0
aF2.0
asI69
(lp1026
F0.0
aF1.9999999999999996
asI70
(lp1027
F0.0
aF1.9999999999999993
asI71
(lp1028
F0.0
aF2.0
asI72
(lp1029
F0.0
aF2.0
asI73
(lp1030
F0.02628900949796472
aF1.9999999999999998
asI74
(lp1031
F0.0
aF2.0
asI75
(lp1032
F0.0
aF2.0
asI76
(lp1033
F0.0
aF1.9999999999999998
asI77
(lp1034
F0.0
aF1.9999999999999998
asI78
(lp1035
F0.0
aF1.9925373134328357
asI79
(lp1036
F0.0
aF2.0
asI80
(lp1037
F0.0
aF2.0000000000000004
asI81
(lp1038
F0.0
aF2.0
asI82
(lp1039
F0.0
aF1.9951456310679612
asI83
(lp1040
F0.0
aF2.0
asI84
(lp1041
F0.07295966973642426
aF1.9999999999999996
asI85
(lp1042
F0.0
aF1.9938650306748467
asI86
(lp1043
F0.0
aF1.9999999999999998
asI87
(lp1044
F0.0
aF1.9999999999999998
asI88
(lp1045
F0.0
aF2.0
asI89
(lp1046
F0.0
aF1.9999999999999998
asI90
(lp1047
F0.0
aF1.9954128440366974
asI91
(lp1048
F0.0
aF2.0
asI92
(lp1049
F0.0
aF2.0
asI93
(lp1050
F0.0
aF1.9961759082217971
asI94
(lp1051
F0.0
aF1.9999999999999996
asI95
(lp1052
F1.0941596365996107
aF2.0
asI96
(lp1053
F0.0
aF2.0
asI97
(lp1054
F0.0
aF2.0
asI98
(lp1055
F0.0
aF1.9999999999999996
asI99
(lp1056
F0.0
aF2.0
assI11
(dp1057
I11
(lp1058
F1.9819819819819822
aF1.9819819819819822
asI12
(lp1059
F0.0
aF1.9839979839979838
asI13
(lp1060
F0.0
aF2.0
asI14
(lp1061
F0.0
aF2.0000000000000004
asI15
(lp1062
F0.0
aF1.9999999999999996
asI16
(lp1063
F0.0
aF1.9999999999999998
asI17
(lp1064
F0.0
aF2.0000000000000004
asI18
(lp1065
F1.290491118077325
aF1.9968652037617556
asI19
(lp1066
F0.0
aF1.9999999999999998
asI20
(lp1067
F0.0
aF2.0
asI21
(lp1068
F0.0
aF1.994871794871795
asI22
(lp1069
F0.0
aF1.9999999999999998
asI23
(lp1070
F0.0
aF2.0
asI24
(lp1071
F0.0
aF1.9909909909909906
asI25
(lp1072
F0.0
aF1.9909909909909909
asI26
(lp1073
F0.0
aF1.9999999999999996
asI27
(lp1074
F1.4471544715447155
aF2.0
asI28
(lp1075
F0.0
aF1.9999999999999998
asI29
(lp1076
F0.0
aF1.9999999999999998
asI30
(lp1077
F0.0
aF2.0
asI31
(lp1078
F0.0
aF1.9909909909909906
asI32
(lp1079
F0.0
aF1.9943502824858754
asI33
(lp1080
F0.0
aF2.0
asI34
(lp1081
F0.0
aF2.0
asI35
(lp1082
F0.0
aF1.9999999999999998
asI36
(lp1083
F0.0
aF2.0
asI37
(lp1084
F0.0
aF1.9999999999999998
asI38
(lp1085
F0.0
aF2.0000000000000004
asI39
(lp1086
F0.0
aF2.0
asI40
(lp1087
F0.0
aF2.0
asI41
(lp1088
F0.0
aF1.9909909909909906
asI42
(lp1089
F0.0
aF1.9999999999999998
asI43
(lp1090
F0.0
aF2.0
asI44
(lp1091
F0.0
aF1.9955947136563876
asI45
(lp1092
F0.0
aF1.9999999999999998
asI46
(lp1093
F0.0
aF2.0
asI47
(lp1094
F0.0
aF2.0
asI48
(lp1095
F1.2816091954022988
aF2.0
asI49
(lp1096
F0.0
aF2.0
asI50
(lp1097
F0.0
aF1.9999999999999998
asI51
(lp1098
F0.0
aF1.9999999999999996
asI52
(lp1099
F0.0
aF1.9999999999999998
asI53
(lp1100
F0.0
aF1.9917355371900825
asI54
(lp1101
F0.0
aF1.9999999999999998
asI55
(lp1102
F1.2808641975308641
aF2.0
asI56
(lp1103
F0.0
aF1.99390243902439
asI57
(lp1104
F0.0
aF1.9999999999999996
asI58
(lp1105
F0.0
aF1.9999999999999996
asI59
(lp1106
F0.0
aF1.990990990990991
asI60
(lp1107
F0.0
aF1.9909909909909909
asI61
(lp1108
F0.0
aF2.0
asI62
(lp1109
F0.0
aF2.0
asI63
(lp1110
F0.0
aF1.9999999999999998
asI64
(lp1111
F0.0
aF2.0
asI65
(lp1112
F0.0
aF1.9935483870967743
asI66
(lp1113
F0.0
aF1.9999999999999996
asI67
(lp1114
F0.0
aF2.0
asI68
(lp1115
F0.0
aF1.9999999999999998
asI69
(lp1116
F0.0
aF2.0000000000000004
asI70
(lp1117
F0.0
aF1.990990990990991
asI71
(lp1118
F0.0
aF2.0
asI72
(lp1119
F0.0
aF2.0
asI73
(lp1120
F0.0
aF2.0
asI74
(lp1121
F0.0
aF2.0000000000000004
asI75
(lp1122
F0.0
aF2.0
asI76
(lp1123
F0.0
aF1.9999999999999998
asI77
(lp1124
F0.0
aF1.9945652173913047
asI78
(lp1125
F1.177860696517413
aF1.9925373134328357
asI79
(lp1126
F0.0
aF1.9999999999999996
asI80
(lp1127
F0.0
aF1.9844120436225698
asI81
(lp1128
F0.0
aF1.9960317460317463
asI82
(lp1129
F0.0
aF1.9951456310679607
asI83
(lp1130
F0.0
aF2.0
asI84
(lp1131
F0.0
aF1.9803526931186504
asI85
(lp1132
F0.0
aF1.9938650306748467
asI86
(lp1133
F0.0
aF1.990990990990991
asI87
(lp1134
F1.1978239366963401
aF1.9909909909909904
asI88
(lp1135
F0.0
aF2.0
asI89
(lp1136
F0.0
aF1.9999999999999996
asI90
(lp1137
F0.0
aF1.995412844036697
asI91
(lp1138
F0.0
aF2.0
asI92
(lp1139
F0.0
aF1.9999999999999996
asI93
(lp1140
F0.0
aF1.9961759082217971
asI94
(lp1141
F0.0
aF1.9999999999999998
asI95
(lp1142
F0.0
aF1.9999999999999998
asI96
(lp1143
F0.0
aF1.9999999999999996
asI97
(lp1144
F0.0
aF1.9999999999999998
asI98
(lp1145
F0.0
aF2.0
asI99
(lp1146
F0.0
aF1.9999999999999998
assI12
(dp1147
I12
(lp1148
F1.986013986013986
aF1.986013986013986
asI13
(lp1149
F1.0670106592436688
aF1.9930069930069927
asI14
(lp1150
F0.0
aF2.0
asI15
(lp1151
F0.0
aF2.0
asI16
(lp1152
F0.0
aF2.0000000000000004
asI17
(lp1153
F0.0
aF1.9968152866242037
asI18
(lp1154
F0.0
aF1.9999999999999998
asI19
(lp1155
F0.0
aF1.993006993006993
asI20
(lp1156
F0.0
aF1.9930069930069931
asI21
(lp1157
F0.0
aF1.9878787878787876
asI22
(lp1158
F0.0
aF1.9930069930069934
asI23
(lp1159
F0.0
aF1.993006993006993
asI24
(lp1160
F0.0
aF1.9930069930069931
asI25
(lp1161
F0.0
aF1.993006993006993
asI26
(lp1162
F0.0
aF2.0
asI27
(lp1163
F0.0
aF1.993006993006993
asI28
(lp1164
F0.0
aF1.9999999999999996
asI29
(lp1165
F0.0
aF1.9856540518305228
asI30
(lp1166
F0.0
aF1.9963636363636366
asI31
(lp1167
F0.0
aF1.986717684830892
asI32
(lp1168
F0.0
aF1.9930069930069927
asI33
(lp1169
F0.0
aF1.9999999999999998
asI34
(lp1170
F0.0
aF1.9930069930069931
asI35
(lp1171
F0.0
aF1.9930069930069927
asI36
(lp1172
F0.0
aF1.993006993006993
asI37
(lp1173
F0.0
aF1.9999999999999998
asI38
(lp1174
F0.0
aF1.9894734241023995
asI39
(lp1175
F0.5731351981351982
aF1.9999999999999998
asI40
(lp1176
F1.0315313429085884
aF1.9940119760479045
asI41
(lp1177
F0.0
aF1.9930069930069931
asI42
(lp1178
F0.0
aF1.9930069930069931
asI43
(lp1179
F0.0
aF1.9930069930069927
asI44
(lp1180
F0.0
aF1.9955947136563879
asI45
(lp1181
F0.0
aF2.0
asI46
(lp1182
F0.0
aF2.0
asI47
(lp1183
F0.0
aF1.9999999999999998
asI48
(lp1184
F0.0
aF2.0
asI49
(lp1185
F0.0
aF1.9897915589233914
asI50
(lp1186
F0.0
aF2.0
asI51
(lp1187
F0.0
aF1.993006993006993
asI52
(lp1188
F0.0
aF1.9861104412828554
asI53
(lp1189
F0.0
aF1.9930069930069931
asI54
(lp1190
F0.0
aF1.993006993006993
asI55
(lp1191
F0.0
aF1.9999999999999998
asI56
(lp1192
F0.0
aF1.9899582125191881
asI57
(lp1193
F0.19655078018067343
aF1.9930069930069927
asI58
(lp1194
F0.0
aF1.993006993006993
asI59
(lp1195
F0.0
aF2.0
asI60
(lp1196
F0.0
aF1.993006993006993
asI61
(lp1197
F0.0
aF1.9930069930069931
asI62
(lp1198
F0.0
aF1.9930069930069927
asI63
(lp1199
F0.0
aF2.0
asI64
(lp1200
F0.0
aF1.9999999999999998
asI65
(lp1201
F0.0
aF1.9935483870967745
asI66
(lp1202
F0.0
aF2.0
asI67
(lp1203
F0.0
aF1.9930069930069927
asI68
(lp1204
F0.0
aF1.9930069930069927
asI69
(lp1205
F0.0
aF1.9930069930069925
asI70
(lp1206
F0.0
aF1.993006993006993
asI71
(lp1207
F0.0
aF2.0
asI72
(lp1208
F0.0
aF1.9999999999999998
asI73
(lp1209
F0.0
aF1.993006993006993
asI74
(lp1210
F0.0
aF1.993006993006993
asI75
(lp1211
F0.0
aF1.9930069930069931
asI76
(lp1212
F0.0
aF1.993006993006993
asI77
(lp1213
F0.0
aF1.993006993006993
asI78
(lp1214
F0.0
aF1.9855443064398284
asI79
(lp1215
F0.0
aF1.9930069930069927
asI80
(lp1216
F0.0
aF1.9999999999999993
asI81
(lp1217
F0.0
aF1.989038739038739
asI82
(lp1218
F0.0
aF1.988152624074954
asI83
(lp1219
F0.0
aF1.9999999999999998
asI84
(lp1220
F0.0
aF2.0
asI85
(lp1221
F0.0
aF1.9938650306748462
asI86
(lp1222
F0.0
aF1.9930069930069925
asI87
(lp1223
F0.0
aF1.9930069930069931
asI88
(lp1224
F0.0
aF1.993006993006993
asI89
(lp1225
F0.0
aF1.9930069930069925
asI90
(lp1226
F0.0
aF1.9884198370436899
asI91
(lp1227
F0.0
aF1.9930069930069931
asI92
(lp1228
F0.0
aF1.993006993006993
asI93
(lp1229
F0.0
aF1.9910949471178916
asI94
(lp1230
F0.0
aF1.9928057553956835
asI95
(lp1231
F0.0
aF1.9930069930069927
asI96
(lp1232
F0.0
aF1.9930069930069927
asI97
(lp1233
F0.0
aF1.9999999999999998
asI98
(lp1234
F0.0
aF1.9930069930069931
asI99
(lp1235
F0.0
aF1.9930069930069927
assI13
(dp1236
I13
(lp1237
F1.9999999999999998
aF1.9999999999999998
asI14
(lp1238
F0.0
aF2.0
asI15
(lp1239
F0.0
aF2.0
asI16
(lp1240
F0.0
aF2.0
asI17
(lp1241
F0.0
aF1.9999999999999998
asI18
(lp1242
F0.0
aF1.9968652037617554
asI19
(lp1243
F0.0
aF2.0
asI20
(lp1244
F0.0
aF1.9999999999999996
asI21
(lp1245
F0.0
aF1.9999999999999998
asI22
(lp1246
F0.0
aF2.0000000000000004
asI23
(lp1247
F0.0
aF2.0
asI24
(lp1248
F0.0
aF2.0000000000000004
asI25
(lp1249
F0.0
aF2.0
asI26
(lp1250
F0.0
aF1.9999999999999996
asI27
(lp1251
F0.0
aF2.0
asI28
(lp1252
F0.052596419346218934
aF2.0
asI29
(lp1253
F0.0
aF1.9926470588235292
asI30
(lp1254
F0.0
aF2.0
asI31
(lp1255
F0.0
aF1.9999999999999998
asI32
(lp1256
F0.0
aF1.9943502824858754
asI33
(lp1257
F0.0
aF1.9999999999999998
asI34
(lp1258
F0.0
aF1.9999999999999998
asI35
(lp1259
F0.0
aF1.9999999999999996
asI36
(lp1260
F1.1424700835403026
aF2.0000000000000004
asI37
(lp1261
F0.0
aF1.9999999999999998
asI38
(lp1262
F0.9385913753473533
aF2.0000000000000004
asI39
(lp1263
F0.0
aF1.9999999999999996
asI40
(lp1264
F0.0
aF2.0
asI41
(lp1265
F0.0
aF2.0
asI42
(lp1266
F0.0
aF1.9999999999999998
asI43
(lp1267
F0.0
aF1.9999999999999996
asI44
(lp1268
F0.0
aF1.9955947136563874
asI45
(lp1269
F0.0
aF1.9999999999999998
asI46
(lp1270
F0.0
aF1.9999999999999996
asI47
(lp1271
F0.0
aF1.9999999999999998
asI48
(lp1272
F0.0
aF2.0
asI49
(lp1273
F0.0
aF2.0
asI50
(lp1274
F0.0
aF2.0
asI51
(lp1275
F0.0
aF2.0
asI52
(lp1276
F0.0
aF2.0
asI53
(lp1277
F0.0
aF1.9917355371900825
asI54
(lp1278
F0.0
aF1.9999999999999998
asI55
(lp1279
F0.0
aF2.0000000000000004
asI56
(lp1280
F0.0
aF1.9969512195121952
asI57
(lp1281
F0.0
aF1.9964412811387897
asI58
(lp1282
F0.0
aF1.9999999999999998
asI59
(lp1283
F0.0
aF2.0
asI60
(lp1284
F0.0
aF2.0
asI61
(lp1285
F0.0
aF1.9999999999999998
asI62
(lp1286
F0.0
aF2.0
asI63
(lp1287
F0.0
aF1.9999999999999998
asI64
(lp1288
F0.0
aF2.0
asI65
(lp1289
F0.0
aF1.974193548387097
asI66
(lp1290
F0.16430171769977597
aF1.9999999999999998
asI67
(lp1291
F0.0
aF1.9999999999999998
asI68
(lp1292
F0.0
aF2.0
asI69
(lp1293
F0.0
aF1.9999999999999996
asI70
(lp1294
F0.0
aF1.9999999999999996
asI71
(lp1295
F0.0
aF1.996845425867508
asI72
(lp1296
F0.16977564452201738
aF1.9999999999999998
asI73
(lp1297
F0.0
aF2.0
asI74
(lp1298
F0.0
aF2.0
asI75
(lp1299
F0.0
aF2.0
asI76
(lp1300
F0.0
aF1.9999999999999998
asI77
(lp1301
F0.0
aF1.9999999999999998
asI78
(lp1302
F0.0
aF1.9962686567164174
asI79
(lp1303
F0.0
aF2.0
asI80
(lp1304
F0.0
aF1.9934210526315788
asI81
(lp1305
F0.06395438434273386
aF1.9999999999999996
asI82
(lp1306
F0.0
aF1.995145631067961
asI83
(lp1307
F0.0
aF2.0
asI84
(lp1308
F0.0
aF2.0
asI85
(lp1309
F0.0
aF1.9938650306748467
asI86
(lp1310
F0.0
aF1.9999999999999998
asI87
(lp1311
F1.04572037682579
aF1.9999999999999998
asI88
(lp1312
F0.0
aF1.9999999999999998
asI89
(lp1313
F0.0
aF1.9999999999999996
asI90
(lp1314
F0.38149104836554737
aF2.0
asI91
(lp1315
F0.0
aF1.9999999999999998
asI92
(lp1316
F1.1574202496532595
aF2.0
asI93
(lp1317
F0.0
aF1.9980879541108985
asI94
(lp1318
F0.0
aF1.9928057553956833
asI95
(lp1319
F0.15476994512452513
aF1.9999999999999996
asI96
(lp1320
F0.0
aF1.9999999999999998
asI97
(lp1321
F0.0
aF2.0
asI98
(lp1322
F0.0
aF2.0
asI99
(lp1323
F0.0
aF1.9999999999999998
assI14
(dp1324
I14
(lp1325
F2.0
aF2.0
asI15
(lp1326
F0.0
aF2.0
asI16
(lp1327
F0.0
aF2.0
asI17
(lp1328
F0.0
aF2.0000000000000004
asI18
(lp1329
F0.0
aF2.0
asI19
(lp1330
F0.0
aF2.0
asI20
(lp1331
F0.0
aF1.9999999999999998
asI21
(lp1332
F0.0
aF1.994871794871795
asI22
(lp1333
F0.0
aF2.0000000000000004
asI23
(lp1334
F0.0
aF2.0
asI24
(lp1335
F0.0
aF2.0
asI25
(lp1336
F0.0
aF2.0
asI26
(lp1337
F0.0
aF2.0
asI27
(lp1338
F0.18913136499786048
aF1.9939024390243907
asI28
(lp1339
F0.0
aF2.0
asI29
(lp1340
F0.0
aF1.9926470588235294
asI30
(lp1341
F0.0
aF2.0
asI31
(lp1342
F0.0
aF1.9937106918238994
asI32
(lp1343
F0.025334522747546835
aF1.9943502824858756
asI33
(lp1344
F0.0
aF2.0
asI34
(lp1345
F0.0
aF1.9999999999999998
asI35
(lp1346
F0.0
aF2.0
asI36
(lp1347
F0.0
aF2.0000000000000004
asI37
(lp1348
F0.0
aF2.0
asI38
(lp1349
F0.0
aF2.0000000000000004
asI39
(lp1350
F0.0
aF1.9999999999999998
asI40
(lp1351
F0.0
aF1.9940119760479038
asI41
(lp1352
F0.0
aF2.0
asI42
(lp1353
F0.0
aF1.9968253968253966
asI43
(lp1354
F0.0
aF2.0
asI44
(lp1355
F0.0
aF1.9955947136563876
asI45
(lp1356
F0.0
aF2.0
asI46
(lp1357
F0.0
aF2.0
asI47
(lp1358
F0.0
aF2.0
asI48
(lp1359
F0.0
aF2.0
asI49
(lp1360
F0.0
aF2.0
asI50
(lp1361
F0.0
aF2.0
asI51
(lp1362
F0.0
aF2.0
asI52
(lp1363
F0.0
aF2.0000000000000004
asI53
(lp1364
F0.0
aF1.9999999999999998
asI54
(lp1365
F0.0
aF2.0000000000000004
asI55
(lp1366
F0.0
aF2.0
asI56
(lp1367
F0.0
aF2.0
asI57
(lp1368
F0.0
aF2.0
asI58
(lp1369
F0.0
aF1.9999999999999998
asI59
(lp1370
F0.0
aF2.0
asI60
(lp1371
F0.0
aF2.0000000000000004
asI61
(lp1372
F0.0
aF2.0
asI62
(lp1373
F0.0
aF2.0
asI63
(lp1374
F0.0
aF2.0
asI64
(lp1375
F0.0
aF2.0000000000000004
asI65
(lp1376
F0.0
aF1.993548387096774
asI66
(lp1377
F0.0
aF2.0
asI67
(lp1378
F0.0
aF2.0
asI68
(lp1379
F0.0
aF2.0
asI69
(lp1380
F0.0
aF2.0
asI70
(lp1381
F0.0
aF2.0000000000000004
asI71
(lp1382
F0.0
aF2.0
asI72
(lp1383
F0.0
aF2.0
asI73
(lp1384
F1.002591706539075
aF2.0000000000000004
asI74
(lp1385
F0.0
aF2.0
asI75
(lp1386
F0.0
aF2.0000000000000004
asI76
(lp1387
F0.0
aF2.0000000000000004
asI77
(lp1388
F0.0
aF1.9999999999999998
asI78
(lp1389
F1.0024221000261848
aF1.992537313432836
asI79
(lp1390
F0.0
aF2.0
asI80
(lp1391
F0.0
aF2.0
asI81
(lp1392
F0.0
aF1.9999999999999998
asI82
(lp1393
F0.06257877703968659
aF2.0
asI83
(lp1394
F0.0
aF2.0
asI84
(lp1395
F0.27140724150802537
aF1.9893617021276597
asI85
(lp1396
F1.1415348186416963
aF1.9938650306748462
asI86
(lp1397
F0.0
aF2.0
asI87
(lp1398
F1.5396741110937582
aF2.0
asI88
(lp1399
F0.0
aF2.0
asI89
(lp1400
F0.9029927760577915
aF1.9999999999999998
asI90
(lp1401
F0.0
aF1.9954128440366974
asI91
(lp1402
F0.0
aF2.0
asI92
(lp1403
F0.0
aF2.0
asI93
(lp1404
F0.0
aF1.9961759082217971
asI94
(lp1405
F0.0
aF1.9999999999999996
asI95
(lp1406
F0.0
aF1.9999999999999996
asI96
(lp1407
F0.0
aF2.0
asI97
(lp1408
F0.0
aF2.0
asI98
(lp1409
F0.0
aF1.9922480620155043
asI99
(lp1410
F0.0
aF2.0
assI15
(dp1411
I15
(lp1412
F1.9999999999999998
aF1.9999999999999998
asI16
(lp1413
F0.0
aF1.9999999999999998
asI17
(lp1414
F0.0
aF1.996815286624204
asI18
(lp1415
F0.0
aF1.9968652037617554
asI19
(lp1416
F0.0
aF2.0
asI20
(lp1417
F0.0
aF1.9942528735632183
asI21
(lp1418
F0.0
aF1.9948717948717944
asI22
(lp1419
F0.0
aF1.9999999999999998
asI23
(lp1420
F0.0
aF1.9999999999999998
asI24
(lp1421
F0.0
aF2.0
asI25
(lp1422
F1.1362293144208038
aF2.0
asI26
(lp1423
F0.0
aF2.0
asI27
(lp1424
F0.0
aF1.99390243902439
asI28
(lp1425
F0.0
aF2.0
asI29
(lp1426
F0.0
aF1.9926470588235294
asI30
(lp1427
F1.053080808080808
aF2.0
asI31
(lp1428
F0.0
aF1.9937106918238992
asI32
(lp1429
F0.0
aF1.9943502824858754
asI33
(lp1430
F0.0
aF2.0
asI34
(lp1431
F0.3753453038674033
aF1.9999999999999998
asI35
(lp1432
F0.0
aF2.0
asI36
(lp1433
F0.0
aF2.0
asI37
(lp1434
F0.10250391236306729
aF2.0
asI38
(lp1435
F0.0
aF2.0
asI39
(lp1436
F0.0
aF1.9999999999999998
asI40
(lp1437
F0.9390385894876913
aF2.0000000000000004
asI41
(lp1438
F0.0
aF2.0
asI42
(lp1439
F0.0
aF1.9999999999999996
asI43
(lp1440
F0.0
aF1.9999999999999998
asI44
(lp1441
F0.0
aF1.9955947136563879
asI45
(lp1442
F0.0
aF2.0
asI46
(lp1443
F0.0
aF2.0
asI47
(lp1444
F0.0
aF1.9999999999999998
asI48
(lp1445
F0.0
aF2.0000000000000004
asI49
(lp1446
F0.0
aF1.9999999999999996
asI50
(lp1447
F0.0
aF1.9999999999999998
asI51
(lp1448
F1.27859477124183
aF1.9999999999999998
asI52
(lp1449
F0.0
aF2.0
asI53
(lp1450
F0.0
aF2.0
asI54
(lp1451
F0.0
aF2.0
asI55
(lp1452
F0.0
aF2.0
asI56
(lp1453
F0.0
aF1.9999999999999998
asI57
(lp1454
F0.0
aF1.9999999999999998
asI58
(lp1455
F0.0
aF1.9999999999999998
asI59
(lp1456
F0.0
aF2.0
asI60
(lp1457
F0.0
aF1.9999999999999998
asI61
(lp1458
F0.0
aF1.9999999999999998
asI62
(lp1459
F0.0
aF1.9999999999999998
asI63
(lp1460
F0.0
aF1.9999999999999998
asI64
(lp1461
F0.0
aF2.0
asI65
(lp1462
F0.0
aF1.9935483870967745
asI66
(lp1463
F0.0
aF1.9999999999999993
asI67
(lp1464
F0.0
aF2.0
asI68
(lp1465
F0.0
aF2.0
asI69
(lp1466
F0.0
aF1.9999999999999996
asI70
(lp1467
F0.0
aF1.9999999999999996
asI71
(lp1468
F0.0
aF1.9999999999999998
asI72
(lp1469
F0.0
aF2.0
asI73
(lp1470
F0.0
aF1.9999999999999998
asI74
(lp1471
F0.0
aF2.0
asI75
(lp1472
F0.0
aF2.0
asI76
(lp1473
F0.0
aF1.9808917197452225
asI77
(lp1474
F0.0
aF1.9999999999999998
asI78
(lp1475
F0.0
aF1.9925373134328357
asI79
(lp1476
F0.0
aF2.0
asI80
(lp1477
F0.0
aF2.0
asI81
(lp1478
F0.0
aF1.996031746031746
asI82
(lp1479
F0.0
aF1.995145631067961
asI83
(lp1480
F0.0
aF1.9999999999999998
asI84
(lp1481
F0.0
aF1.9893617021276593
asI85
(lp1482
F0.0
aF1.9938650306748464
asI86
(lp1483
F0.0
aF1.9999999999999996
asI87
(lp1484
F0.0
aF1.9999999999999998
asI88
(lp1485
F0.0
aF2.0
asI89
(lp1486
F0.0
aF1.9999999999999998
asI90
(lp1487
F0.0
aF1.995412844036697
asI91
(lp1488
F0.0
aF2.0
asI92
(lp1489
F0.0
aF2.0
asI93
(lp1490
F0.0
aF1.996175908221797
asI94
(lp1491
F0.0
aF1.9928057553956833
asI95
(lp1492
F1.0595410628019324
aF1.9999999999999998
asI96
(lp1493
F0.0
aF1.9999999999999996
asI97
(lp1494
F1.2117117117117115
aF2.0
asI98
(lp1495
F0.0
aF1.9999999999999998
asI99
(lp1496
F0.0
aF1.9999999999999998
assI16
(dp1497
I16
(lp1498
F1.9999999999999998
aF1.9999999999999998
asI17
(lp1499
F0.0
aF2.0000000000000004
asI18
(lp1500
F0.0
aF2.0000000000000004
asI19
(lp1501
F0.0
aF2.0
asI20
(lp1502
F0.0
aF1.9999999999999998
asI21
(lp1503
F0.0
aF1.9999999999999998
asI22
(lp1504
F0.0
aF2.0
asI23
(lp1505
F0.0
aF2.0
asI24
(lp1506
F0.0
aF2.0
asI25
(lp1507
F0.0
aF2.0
asI26
(lp1508
F0.0
aF1.9999999999999998
asI27
(lp1509
F0.0
aF2.0
asI28
(lp1510
F0.0
aF1.9999999999999998
asI29
(lp1511
F0.0
aF2.0
asI30
(lp1512
F0.0
aF1.9999999999999998
asI31
(lp1513
F0.0
aF2.0
asI32
(lp1514
F0.0
aF1.9999999999999998
asI33
(lp1515
F0.0
aF2.0
asI34
(lp1516
F0.0
aF1.9999999999999998
asI35
(lp1517
F0.0
aF2.0
asI36
(lp1518
F0.0
aF2.0
asI37
(lp1519
F0.0
aF1.9999999999999998
asI38
(lp1520
F0.0
aF2.0
asI39
(lp1521
F0.0
aF1.9999999999999998
asI40
(lp1522
F0.0
aF2.0
asI41
(lp1523
F0.0
aF2.0
asI42
(lp1524
F0.0
aF2.0
asI43
(lp1525
F0.0
aF1.9999999999999998
asI44
(lp1526
F0.0
aF1.9955947136563876
asI45
(lp1527
F0.0
aF2.0
asI46
(lp1528
F0.0
aF1.9999999999999998
asI47
(lp1529
F0.0
aF2.0
asI48
(lp1530
F0.0
aF2.0
asI49
(lp1531
F0.0
aF2.0
asI50
(lp1532
F0.0
aF1.9999999999999998
asI51
(lp1533
F0.0
aF2.0
asI52
(lp1534
F0.0
aF1.993103448275862
asI53
(lp1535
F0.0
aF1.9917355371900831
asI54
(lp1536
F0.0
aF1.9999999999999998
asI55
(lp1537
F0.0
aF2.0
asI56
(lp1538
F0.0
aF1.9999999999999996
asI57
(lp1539
F0.0
aF2.0
asI58
(lp1540
F0.0
aF1.9999999999999998
asI59
(lp1541
F0.0
aF2.0
asI60
(lp1542
F0.0
aF1.9999999999999998
asI61
(lp1543
F0.0
aF2.0
asI62
(lp1544
F0.0
aF1.9999999999999998
asI63
(lp1545
F0.0
aF1.9999999999999998
asI64
(lp1546
F0.0
aF2.0000000000000004
asI65
(lp1547
F0.0
aF1.9806451612903226
asI66
(lp1548
F0.0
aF1.9999999999999996
asI67
(lp1549
F0.0
aF1.9999999999999996
asI68
(lp1550
F0.0
aF1.9999999999999998
asI69
(lp1551
F0.0
aF1.9999999999999998
asI70
(lp1552
F0.0
aF1.9999999999999996
asI71
(lp1553
F1.1234511691437121
aF2.0
asI72
(lp1554
F0.0
aF2.0
asI73
(lp1555
F0.0
aF1.9999999999999998
asI74
(lp1556
F0.0
aF2.0000000000000004
asI75
(lp1557
F0.0
aF1.9999999999999996
asI76
(lp1558
F0.0
aF1.9999999999999996
asI77
(lp1559
F0.0
aF2.0
asI78
(lp1560
F0.0
aF1.992537313432836
asI79
(lp1561
F0.0
aF2.0
asI80
(lp1562
F0.11733586543678784
aF1.9934210526315785
asI81
(lp1563
F0.0
aF2.0
asI82
(lp1564
F0.0
aF1.9951456310679612
asI83
(lp1565
F0.0
aF1.9999999999999996
asI84
(lp1566
F0.0
aF1.9999999999999996
asI85
(lp1567
F0.0
aF1.9938650306748467
asI86
(lp1568
F0.0
aF1.9999999999999996
asI87
(lp1569
F0.0
aF1.9999999999999998
asI88
(lp1570
F0.0
aF2.0
asI89
(lp1571
F0.0
aF1.9999999999999998
asI90
(lp1572
F0.0
aF2.0
asI91
(lp1573
F0.0
aF2.0000000000000004
asI92
(lp1574
F0.0
aF1.9999999999999998
asI93
(lp1575
F0.0
aF1.9999999999999996
asI94
(lp1576
F0.0
aF1.9928057553956835
asI95
(lp1577
F0.0
aF1.9999999999999998
asI96
(lp1578
F0.37282962561041777
aF1.9999999999999998
asI97
(lp1579
F0.0
aF2.0
asI98
(lp1580
F0.0
aF1.9999999999999996
asI99
(lp1581
F0.0
aF2.0
assI17
(dp1582
I17
(lp1583
F1.9936305732484076
aF1.9936305732484076
asI18
(lp1584
F0.0
aF1.9999999999999998
asI19
(lp1585
F0.17714451153941602
aF2.0000000000000004
asI20
(lp1586
F0.0
aF1.9999999999999998
asI21
(lp1587
F0.0
aF2.0
asI22
(lp1588
F0.0
aF2.0000000000000004
asI23
(lp1589
F0.0
aF2.0000000000000004
asI24
(lp1590
F0.0
aF1.996815286624204
asI25
(lp1591
F0.0
aF2.0000000000000004
asI26
(lp1592
F0.0
aF2.0
asI27
(lp1593
F0.0
aF1.990717725648594
asI28
(lp1594
F0.0
aF2.0000000000000004
asI29
(lp1595
F0.22372611464968153
aF1.9894623454477336
asI30
(lp1596
F0.0
aF2.0000000000000004
asI31
(lp1597
F0.0
aF2.0
asI32
(lp1598
F0.0
aF2.0000000000000004
asI33
(lp1599
F0.0
aF2.0
asI34
(lp1600
F0.0
aF1.9968152866242037
asI35
(lp1601
F0.0
aF2.0000000000000004
asI36
(lp1602
F0.0
aF2.0000000000000004
asI37
(lp1603
F0.0
aF2.0000000000000004
asI38
(lp1604
F0.0
aF2.0000000000000004
asI39
(lp1605
F0.0
aF2.0
asI40
(lp1606
F0.0
aF2.0000000000000004
asI41
(lp1607
F0.0
aF2.0000000000000004
asI42
(lp1608
F0.0
aF1.9968253968253968
asI43
(lp1609
F0.0
aF2.0000000000000004
asI44
(lp1610
F1.139089200033671
aF1.9955947136563874
asI45
(lp1611
F0.0
aF1.9968152866242037
asI46
(lp1612
F0.0
aF2.0
asI47
(lp1613
F0.0
aF2.0000000000000004
asI48
(lp1614
F0.0
aF2.0000000000000004
asI49
(lp1615
F0.0
aF2.0000000000000004
asI50
(lp1616
F0.0
aF2.0000000000000004
asI51
(lp1617
F0.0
aF2.0000000000000004
asI52
(lp1618
F0.0
aF1.9931034482758623
asI53
(lp1619
F0.0
aF1.991735537190083
asI54
(lp1620
F0.0
aF1.9999999999999998
asI55
(lp1621
F0.0
aF2.0000000000000004
asI56
(lp1622
F0.0
aF2.0000000000000004
asI57
(lp1623
F0.0
aF1.9999999999999998
asI58
(lp1624
F0.0
aF2.0000000000000004
asI59
(lp1625
F0.0
aF2.0
asI60
(lp1626
F1.311325151468075
aF1.996815286624204
asI61
(lp1627
F0.0
aF2.0000000000000004
asI62
(lp1628
F0.0
aF2.0
asI63
(lp1629
F0.0
aF2.0000000000000004
asI64
(lp1630
F0.0
aF1.9999999999999998
asI65
(lp1631
F0.0
aF1.9774604479145264
asI66
(lp1632
F0.0
aF1.9999999999999998
asI67
(lp1633
F0.0
aF1.9999999999999998
asI68
(lp1634
F0.0
aF2.000000000000001
asI69
(lp1635
F0.0
aF1.9999999999999998
asI70
(lp1636
F0.0
aF2.0
asI71
(lp1637
F0.0
aF2.0
asI72
(lp1638
F0.0
aF2.0000000000000004
asI73
(lp1639
F0.0
aF2.0
asI74
(lp1640
F0.0
aF2.0
asI75
(lp1641
F0.0
aF2.0000000000000004
asI76
(lp1642
F0.0
aF1.9968152866242037
asI77
(lp1643
F0.0
aF1.9999999999999998
asI78
(lp1644
F0.0
aF1.996268656716418
asI79
(lp1645
F0.0
aF2.0
asI80
(lp1646
F0.0
aF2.0
asI81
(lp1647
F0.0
aF1.9999999999999998
asI82
(lp1648
F0.0
aF2.0
asI83
(lp1649
F0.0
aF1.9999999999999998
asI84
(lp1650
F0.0
aF1.996815286624204
asI85
(lp1651
F0.0
aF1.9938650306748467
asI86
(lp1652
F0.0
aF2.0000000000000004
asI87
(lp1653
F0.0
aF1.9968152866242037
asI88
(lp1654
F0.0
aF2.0000000000000004
asI89
(lp1655
F0.0
aF2.0
asI90
(lp1656
F0.0
aF2.0000000000000004
asI91
(lp1657
F0.0
aF2.0000000000000004
asI92
(lp1658
F0.0
aF2.0000000000000004
asI93
(lp1659
F0.0
aF2.0
asI94
(lp1660
F0.0
aF2.0
asI95
(lp1661
F0.0
aF1.9999999999999996
asI96
(lp1662
F1.45465973851827
aF2.0
asI97
(lp1663
F0.0
aF2.0000000000000004
asI98
(lp1664
F0.0
aF1.9999999999999998
asI99
(lp1665
F0.0
aF1.996815286624204
assI18
(dp1666
I18
(lp1667
F1.987460815047022
aF1.987460815047022
asI19
(lp1668
F1.2861621137483206
aF2.0
asI20
(lp1669
F0.0
aF1.9999999999999998
asI21
(lp1670
F0.0
aF1.9948717948717951
asI22
(lp1671
F0.0
aF2.0
asI23
(lp1672
F0.0
aF2.0
asI24
(lp1673
F0.0
aF2.0
asI25
(lp1674
F0.0
aF2.0
asI26
(lp1675
F1.137560715146922
aF2.0
asI27
(lp1676
F0.0
aF2.0
asI28
(lp1677
F0.0
aF1.9999999999999998
asI29
(lp1678
F0.0
aF1.9926470588235292
asI30
(lp1679
F0.0
aF1.9999999999999998
asI31
(lp1680
F0.0
aF2.0
asI32
(lp1681
F0.0
aF1.9943502824858759
asI33
(lp1682
F0.0
aF2.0
asI34
(lp1683
F0.0
aF1.9999999999999998
asI35
(lp1684
F0.0
aF1.9999999999999998
asI36
(lp1685
F0.0
aF2.0
asI37
(lp1686
F0.0
aF1.9968652037617554
asI38
(lp1687
F0.0
aF2.0000000000000004
asI39
(lp1688
F0.0
aF1.9968652037617556
asI40
(lp1689
F0.018245640380680647
aF2.0000000000000004
asI41
(lp1690
F0.0
aF2.0
asI42
(lp1691
F0.0
aF2.0000000000000004
asI43
(lp1692
F0.0
aF2.0
asI44
(lp1693
F0.0
aF1.9955947136563876
asI45
(lp1694
F0.0
aF1.9999999999999998
asI46
(lp1695
F0.0
aF2.0
asI47
(lp1696
F0.0
aF1.9999999999999998
asI48
(lp1697
F0.0
aF2.0
asI49
(lp1698
F1.2186797568768963
aF1.9999999999999998
asI50
(lp1699
F0.0
aF2.0
asI51
(lp1700
F0.0
aF2.0
asI52
(lp1701
F0.0
aF2.0
asI53
(lp1702
F0.0
aF2.0
asI54
(lp1703
F0.0
aF2.0000000000000004
asI55
(lp1704
F1.238021982274856
aF2.0
asI56
(lp1705
F1.1512634758009024
aF1.9969512195121952
asI57
(lp1706
F0.0
aF1.9999999999999998
asI58
(lp1707
F0.0
aF2.0
asI59
(lp1708
F0.0
aF2.0
asI60
(lp1709
F0.0
aF1.9999999999999998
asI61
(lp1710
F0.0
aF2.0
asI62
(lp1711
F0.0
aF2.0
asI63
(lp1712
F0.0
aF1.9999999999999998
asI64
(lp1713
F0.0
aF2.0
asI65
(lp1714
F0.0
aF1.9935483870967743
asI66
(lp1715
F0.0
aF2.0
asI67
(lp1716
F0.0
aF1.9889911880137239
asI68
(lp1717
F0.0
aF2.0000000000000004
asI69
(lp1718
F0.0
aF2.0
asI70
(lp1719
F0.30758379551483
aF2.0000000000000004
asI71
(lp1720
F0.0
aF1.9999999999999998
asI72
(lp1721
F0.0
aF1.9999999999999998
asI73
(lp1722
F0.0
aF2.0000000000000004
asI74
(lp1723
F0.0
aF2.0
asI75
(lp1724
F0.0
aF2.0
asI76
(lp1725
F0.0
aF2.0
asI77
(lp1726
F0.0
aF2.0000000000000004
asI78
(lp1727
F1.1350184812614046
aF1.992537313432836
asI79
(lp1728
F0.0
aF2.0
asI80
(lp1729
F0.0
aF2.0
asI81
(lp1730
F0.0
aF2.0
asI82
(lp1731
F0.0
aF2.0
asI83
(lp1732
F0.0
aF2.0
asI84
(lp1733
F0.0
aF2.0
asI85
(lp1734
F0.0
aF1.990730234436602
asI86
(lp1735
F0.0
aF2.0
asI87
(lp1736
F0.0
aF2.0
asI88
(lp1737
F0.0
aF2.0
asI89
(lp1738
F0.0
aF2.0
asI90
(lp1739
F0.0
aF2.0000000000000004
asI91
(lp1740
F0.0
aF2.0
asI92
(lp1741
F0.0
aF2.0000000000000004
asI93
(lp1742
F1.1324286579116145
aF1.9961759082217971
asI94
(lp1743
F0.0
aF1.9999999999999998
asI95
(lp1744
F0.0
aF1.9999999999999998
asI96
(lp1745
F0.0
aF2.0
asI97
(lp1746
F0.0
aF2.0
asI98
(lp1747
F0.0
aF2.0
asI99
(lp1748
F0.0
aF1.9999999999999998
assI19
(dp1749
I19
(lp1750
F2.0
aF2.0
asI20
(lp1751
F0.0
aF2.0
asI21
(lp1752
F0.0
aF1.994871794871795
asI22
(lp1753
F0.0
aF2.0
asI23
(lp1754
F0.0
aF2.0
asI24
(lp1755
F0.0
aF2.0000000000000004
asI25
(lp1756
F0.0
aF2.0000000000000004
asI26
(lp1757
F0.0
aF2.0
asI27
(lp1758
F0.0
aF1.9939024390243902
asI28
(lp1759
F0.044322649827236986
aF2.0
asI29
(lp1760
F0.0
aF1.9926470588235294
asI30
(lp1761
F0.0
aF2.0
asI31
(lp1762
F0.0
aF1.9937106918238994
asI32
(lp1763
F0.0
aF1.9943502824858756
asI33
(lp1764
F0.0
aF2.0
asI34
(lp1765
F0.0
aF1.9999999999999996
asI35
(lp1766
F0.0
aF1.9999999999999998
asI36
(lp1767
F0.0
aF2.0
asI37
(lp1768
F0.0
aF2.0
asI38
(lp1769
F0.0
aF2.0
asI39
(lp1770
F0.0
aF1.9967948717948716
asI40
(lp1771
F0.0
aF2.0000000000000004
asI41
(lp1772
F0.0
aF2.0000000000000004
asI42
(lp1773
F0.0
aF1.9968253968253966
asI43
(lp1774
F0.0
aF2.0
asI44
(lp1775
F0.0
aF1.9955947136563876
asI45
(lp1776
F0.0
aF2.0
asI46
(lp1777
F0.0
aF2.0
asI47
(lp1778
F0.0
aF2.0
asI48
(lp1779
F0.0
aF2.0
asI49
(lp1780
F0.0
aF1.9999999999999998
asI50
(lp1781
F0.0
aF2.0
asI51
(lp1782
F0.0
aF2.0
asI52
(lp1783
F0.0
aF1.9931034482758625
asI53
(lp1784
F0.0
aF1.9917355371900825
asI54
(lp1785
F0.0
aF1.9999999999999998
asI55
(lp1786
F0.0
aF2.0
asI56
(lp1787
F0.0
aF1.996951219512195
asI57
(lp1788
F0.0
aF1.99644128113879
asI58
(lp1789
F0.0
aF1.9999999999999996
asI59
(lp1790
F0.0
aF2.0000000000000004
asI60
(lp1791
F0.0
aF2.0
asI61
(lp1792
F0.0
aF2.0
asI62
(lp1793
F0.0
aF1.9999999999999996
asI63
(lp1794
F0.0
aF2.0
asI64
(lp1795
F0.0
aF1.9999999999999998
asI65
(lp1796
F0.0
aF1.9935483870967743
asI66
(lp1797
F0.0
aF1.9999999999999998
asI67
(lp1798
F0.0
aF1.9921259842519683
asI68
(lp1799
F0.0
aF2.0
asI69
(lp1800
F0.0
aF1.9999999999999996
asI70
(lp1801
F0.0
aF1.9999999999999998
asI71
(lp1802
F0.0
aF2.0
asI72
(lp1803
F0.0
aF2.0
asI73
(lp1804
F0.0
aF1.9999999999999998
asI74
(lp1805
F0.0
aF2.0
asI75
(lp1806
F0.0
aF2.0
asI76
(lp1807
F0.0
aF2.0
asI77
(lp1808
F0.0
aF2.0000000000000004
asI78
(lp1809
F1.1735316921884085
aF1.9925373134328355
asI79
(lp1810
F0.0
aF2.0
asI80
(lp1811
F0.0
aF1.9999999999999996
asI81
(lp1812
F0.0
aF1.9999999999999996
asI82
(lp1813
F0.0
aF1.9951456310679612
asI83
(lp1814
F0.0
aF1.9999999999999998
asI84
(lp1815
F0.0
aF2.0
asI85
(lp1816
F0.0
aF1.9999999999999998
asI86
(lp1817
F0.0
aF2.0
asI87
(lp1818
F0.0
aF1.9999999999999998
asI88
(lp1819
F0.0
aF1.9950495049504953
asI89
(lp1820
F0.0
aF1.9999999999999996
asI90
(lp1821
F0.0
aF1.995412844036697
asI91
(lp1822
F0.0
aF2.0000000000000004
asI92
(lp1823
F0.0
aF1.9999999999999998
asI93
(lp1824
F0.0
aF1.9980879541108985
asI94
(lp1825
F0.0
aF1.9928057553956835
asI95
(lp1826
F0.0
aF1.9999999999999998
asI96
(lp1827
F0.0
aF1.9999999999999998
asI97
(lp1828
F0.0
aF2.0000000000000004
asI98
(lp1829
F0.0
aF2.0
asI99
(lp1830
F0.0
aF2.0
assI20
(dp1831
I20
(lp1832
F1.9885057471264367
aF1.9885057471264365
asI21
(lp1833
F1.1679045092838196
aF1.9948717948717947
asI22
(lp1834
F0.0
aF2.0000000000000004
asI23
(lp1835
F0.0
aF1.9999999999999998
asI24
(lp1836
F0.0
aF2.0000000000000004
asI25
(lp1837
F0.0
aF2.0
asI26
(lp1838
F1.400719969685487
aF2.0
asI27
(lp1839
F0.0
aF1.9881553125876088
asI28
(lp1840
F0.0
aF1.9999999999999998
asI29
(lp1841
F0.026200135226504394
aF1.9926470588235294
asI30
(lp1842
F0.0
aF2.0
asI31
(lp1843
F1.108978529603123
aF2.0
asI32
(lp1844
F0.0
aF1.9943502824858759
asI33
(lp1845
F0.0
aF1.9999999999999998
asI34
(lp1846
F0.0
aF2.0
asI35
(lp1847
F0.0
aF1.9999999999999998
asI36
(lp1848
F0.0
aF1.9999999999999998
asI37
(lp1849
F0.0
aF2.0
asI38
(lp1850
F0.0
aF2.0
asI39
(lp1851
F0.0
aF2.0000000000000004
asI40
(lp1852
F0.0
aF2.0
asI41
(lp1853
F0.0
aF2.0
asI42
(lp1854
F0.0
aF1.9968253968253968
asI43
(lp1855
F0.0
aF2.0
asI44
(lp1856
F0.0
aF1.9955947136563874
asI45
(lp1857
F0.0
aF2.0000000000000004
asI46
(lp1858
F0.0
aF2.0
asI47
(lp1859
F0.0
aF2.0
asI48
(lp1860
F0.0
aF2.0
asI49
(lp1861
F0.0
aF2.0
asI50
(lp1862
F0.0
aF1.9999999999999998
asI51
(lp1863
F0.0
aF2.0
asI52
(lp1864
F1.0839080459770116
aF2.0000000000000004
asI53
(lp1865
F0.0
aF2.0
asI54
(lp1866
F0.0
aF2.0000000000000004
asI55
(lp1867
F0.0
aF2.0
asI56
(lp1868
F0.0
aF2.0
asI57
(lp1869
F0.0
aF1.9999999999999998
asI58
(lp1870
F0.0
aF2.0
asI59
(lp1871
F0.0
aF2.0
asI60
(lp1872
F0.0
aF1.9942528735632186
asI61
(lp1873
F0.0
aF2.0000000000000004
asI62
(lp1874
F0.0
aF2.0
asI63
(lp1875
F0.0
aF2.0
asI64
(lp1876
F0.0
aF2.0
asI65
(lp1877
F0.0
aF1.9935483870967743
asI66
(lp1878
F0.0
aF2.0
asI67
(lp1879
F0.0
aF1.9942528735632183
asI68
(lp1880
F0.0
aF2.0000000000000004
asI69
(lp1881
F0.0
aF1.9999999999999998
asI70
(lp1882
F0.0
aF2.0000000000000004
asI71
(lp1883
F0.0
aF1.996845425867508
asI72
(lp1884
F0.0
aF1.9999999999999998
asI73
(lp1885
F0.0
aF1.9999999999999996
asI74
(lp1886
F0.0
aF1.9999999999999998
asI75
(lp1887
F0.0
aF2.0000000000000004
asI76
(lp1888
F0.0
aF2.0000000000000004
asI77
(lp1889
F0.0
aF2.0
asI78
(lp1890
F0.0
aF1.9925373134328355
asI79
(lp1891
F0.0
aF1.9999999999999998
asI80
(lp1892
F0.0
aF1.9934210526315788
asI81
(lp1893
F0.0
aF2.0
asI82
(lp1894
F0.1042294386787189
aF1.9951456310679616
asI83
(lp1895
F0.0
aF1.9999999999999998
asI84
(lp1896
F0.0
aF1.9893617021276597
asI85
(lp1897
F0.0
aF1.9938650306748469
asI86
(lp1898
F0.0
aF2.0
asI87
(lp1899
F0.0
aF2.0
asI88
(lp1900
F0.0
aF2.0000000000000004
asI89
(lp1901
F0.0
aF2.0
asI90
(lp1902
F0.0
aF1.9954128440366972
asI91
(lp1903
F0.0
aF2.0
asI92
(lp1904
F0.0
aF2.0
asI93
(lp1905
F0.015318344651765896
aF1.9980879541108985
asI94
(lp1906
F0.0
aF1.9928057553956837
asI95
(lp1907
F0.0
aF2.0
asI96
(lp1908
F0.0
aF2.0
asI97
(lp1909
F0.0
aF1.9969969969969972
asI98
(lp1910
F0.0
aF2.0
asI99
(lp1911
F0.0
aF1.9942528735632186
assI21
(dp1912
I21
(lp1913
F1.9897435897435896
aF1.9897435897435896
asI22
(lp1914
F0.0
aF1.9948717948717947
asI23
(lp1915
F0.0
aF1.9999999999999998
asI24
(lp1916
F0.0
aF1.9948717948717953
asI25
(lp1917
F0.0
aF1.994871794871795
asI26
(lp1918
F1.17014652014652
aF1.9999999999999998
asI27
(lp1919
F0.0
aF1.9939024390243902
asI28
(lp1920
F0.0
aF1.9999999999999998
asI29
(lp1921
F0.0
aF1.9875188536953243
asI30
(lp1922
F0.0
aF2.0
asI31
(lp1923
F0.0
aF1.9937106918238992
asI32
(lp1924
F0.0
aF1.9943502824858756
asI33
(lp1925
F0.0
aF1.9948717948717947
asI34
(lp1926
F0.0
aF1.9948717948717947
asI35
(lp1927
F0.0
aF1.9892220773576705
asI36
(lp1928
F0.0
aF1.994871794871795
asI37
(lp1929
F0.0
aF1.9948717948717947
asI38
(lp1930
F0.0
aF1.9948717948717951
asI39
(lp1931
F0.0
aF1.9916666666666665
asI40
(lp1932
F0.0
aF1.9948717948717953
asI41
(lp1933
F0.0
aF1.9948717948717947
asI42
(lp1934
F0.0
aF1.991697191697191
asI43
(lp1935
F0.0
aF1.994871794871795
asI44
(lp1936
F0.0
aF1.9904665085281823
asI45
(lp1937
F0.0
aF1.994871794871795
asI46
(lp1938
F0.0
aF2.0
asI47
(lp1939
F0.0
aF1.9948717948717944
asI48
(lp1940
F0.0
aF2.0
asI49
(lp1941
F0.0
aF2.0
asI50
(lp1942
F0.0
aF1.9948717948717947
asI51
(lp1943
F0.0
aF1.9948717948717947
asI52
(lp1944
F0.0
aF2.0
asI53
(lp1945
F0.0
aF1.9948717948717947
asI54
(lp1946
F0.0
aF1.994871794871795
asI55
(lp1947
F0.0
aF1.994871794871795
asI56
(lp1948
F0.0
aF1.9939024390243902
asI57
(lp1949
F0.0
aF1.994871794871795
asI58
(lp1950
F0.0
aF1.9948717948717947
asI59
(lp1951
F0.0
aF1.9948717948717953
asI60
(lp1952
F0.0
aF1.994871794871795
asI61
(lp1953
F0.0
aF1.9948717948717947
asI62
(lp1954
F0.0
aF1.9948717948717951
asI63
(lp1955
F0.0
aF1.9948717948717944
asI64
(lp1956
F0.0
aF1.9948717948717944
asI65
(lp1957
F0.0
aF1.974193548387097
asI66
(lp1958
F0.0
aF1.9948717948717947
asI67
(lp1959
F0.0
aF1.9948717948717942
asI68
(lp1960
F0.0
aF1.9948717948717951
asI69
(lp1961
F0.0
aF1.9948717948717947
asI70
(lp1962
F0.0
aF2.0
asI71
(lp1963
F0.0
aF1.994871794871795
asI72
(lp1964
F0.0
aF1.9948717948717947
asI73
(lp1965
F0.0
aF2.0
asI74
(lp1966
F0.0
aF1.9948717948717953
asI75
(lp1967
F0.0
aF1.9948717948717951
asI76
(lp1968
F0.0
aF1.9948717948717947
asI77
(lp1969
F0.0
aF1.9948717948717947
asI78
(lp1970
F0.0
aF1.992537313432836
asI79
(lp1971
F0.0
aF1.9948717948717947
asI80
(lp1972
F0.0
aF1.9948717948717951
asI81
(lp1973
F0.0
aF1.9948717948717947
asI82
(lp1974
F0.0
aF1.985163057007717
asI83
(lp1975
F0.0
aF1.994871794871795
asI84
(lp1976
F0.0
aF1.9842334969994542
asI85
(lp1977
F0.0
aF2.0
asI86
(lp1978
F0.0
aF1.9948717948717947
asI87
(lp1979
F0.0
aF1.9948717948717942
asI88
(lp1980
F0.0
aF1.98992129982229
asI89
(lp1981
F0.0
aF1.9948717948717942
asI90
(lp1982
F0.0
aF2.0
asI91
(lp1983
F0.0
aF1.994871794871795
asI92
(lp1984
F1.2992673992673993
aF1.9948717948717947
asI93
(lp1985
F0.0
aF1.9980879541108985
asI94
(lp1986
F0.0
aF1.9928057553956837
asI95
(lp1987
F0.0
aF1.9948717948717947
asI96
(lp1988
F0.0
aF1.9948717948717947
asI97
(lp1989
F0.042411642411642414
aF1.994871794871795
asI98
(lp1990
F1.5234347048300536
aF1.9948717948717947
asI99
(lp1991
F0.0
aF1.9948717948717947
assI22
(dp1992
I22
(lp1993
F1.9999999999999998
aF1.9999999999999998
asI23
(lp1994
F0.0
aF2.0
asI24
(lp1995
F0.0
aF2.0
asI25
(lp1996
F0.0
aF2.0
asI26
(lp1997
F0.0
aF1.9999999999999998
asI27
(lp1998
F1.1625102767881612
aF2.0
asI28
(lp1999
F0.0
aF1.9999999999999998
asI29
(lp2000
F0.0
aF1.9926470588235292
asI30
(lp2001
F0.0
aF1.9963636363636368
asI31
(lp2002
F0.0
aF2.0
asI32
(lp2003
F0.0
aF1.9943502824858754
asI33
(lp2004
F0.0
aF2.0
asI34
(lp2005
F0.0
aF2.0
asI35
(lp2006
F0.0
aF1.9999999999999998
asI36
(lp2007
F0.0
aF2.0000000000000004
asI37
(lp2008
F0.0
aF2.0
asI38
(lp2009
F0.0
aF2.0000000000000004
asI39
(lp2010
F0.0
aF2.0
asI40
(lp2011
F0.0
aF2.0
asI41
(lp2012
F0.0
aF2.0
asI42
(lp2013
F0.0
aF1.9999999999999998
asI43
(lp2014
F0.0
aF2.0
asI44
(lp2015
F0.0
aF1.9955947136563876
asI45
(lp2016
F0.0
aF2.0
asI46
(lp2017
F0.0
aF1.9999999999999996
asI47
(lp2018
F0.0
aF2.0
asI48
(lp2019
F0.0
aF2.0
asI49
(lp2020
F0.0
aF1.9967845659163987
asI50
(lp2021
F0.0
aF2.0
asI51
(lp2022
F0.0
aF2.0
asI52
(lp2023
F0.0
aF2.0
asI53
(lp2024
F0.0
aF1.9999999999999998
asI54
(lp2025
F0.0
aF2.0000000000000004
asI55
(lp2026
F0.0
aF1.9999999999999998
asI56
(lp2027
F0.0
aF1.9969512195121952
asI57
(lp2028
F0.0
aF2.0
asI58
(lp2029
F0.0
aF1.9999999999999998
asI59
(lp2030
F0.0
aF2.0
asI60
(lp2031
F0.0
aF2.0
asI61
(lp2032
F0.0
aF2.0
asI62
(lp2033
F0.0
aF2.0
asI63
(lp2034
F0.0
aF2.0
asI64
(lp2035
F0.0
aF2.0000000000000004
asI65
(lp2036
F0.0
aF1.9935483870967743
asI66
(lp2037
F0.32751368481705556
aF1.9999999999999998
asI67
(lp2038
F0.0
aF2.0
asI68
(lp2039
F0.0
aF2.0
asI69
(lp2040
F0.33224094881398253
aF1.9999999999999998
asI70
(lp2041
F0.35700086430423505
aF1.9999999999999996
asI71
(lp2042
F0.0
aF1.9999999999999998
asI72
(lp2043
F0.0
aF2.0
asI73
(lp2044
F0.0
aF2.0
asI74
(lp2045
F0.0
aF2.0000000000000004
asI75
(lp2046
F0.0
aF2.0
asI76
(lp2047
F0.0
aF2.0
asI77
(lp2048
F0.0
aF2.0
asI78
(lp2049
F0.0
aF1.9925373134328355
asI79
(lp2050
F1.28050850334363
aF1.9999999999999998
asI80
(lp2051
F0.0
aF1.9999999999999993
asI81
(lp2052
F0.0
aF1.9960317460317458
asI82
(lp2053
F0.0
aF1.9951456310679614
asI83
(lp2054
F0.0
aF1.9999999999999998
asI84
(lp2055
F0.0
aF1.9999999999999998
asI85
(lp2056
F0.0
aF2.0
asI86
(lp2057
F0.0
aF1.9999999999999996
asI87
(lp2058
F0.0
aF2.0
asI88
(lp2059
F0.0
aF2.0
asI89
(lp2060
F0.0
aF1.9999999999999998
asI90
(lp2061
F0.0
aF1.9954128440366972
asI91
(lp2062
F0.0
aF2.0000000000000004
asI92
(lp2063
F0.0
aF1.9999999999999998
asI93
(lp2064
F0.0
aF1.9980879541108987
asI94
(lp2065
F0.0
aF1.9928057553956835
asI95
(lp2066
F0.0
aF1.9999999999999996
asI96
(lp2067
F0.0
aF2.0
asI97
(lp2068
F0.20573944731248103
aF2.0000000000000004
asI98
(lp2069
F0.0
aF2.0
asI99
(lp2070
F0.32387913166793936
aF2.0000000000000004
assI23
(dp2071
I23
(lp2072
F1.9999999999999998
aF1.9999999999999998
asI24
(lp2073
F0.0
aF2.0
asI25
(lp2074
F0.0
aF2.0
asI26
(lp2075
F0.0
aF1.9999999999999998
asI27
(lp2076
F0.0
aF2.0
asI28
(lp2077
F0.0
aF2.0
asI29
(lp2078
F0.0
aF1.9926470588235294
asI30
(lp2079
F0.0
aF2.0
asI31
(lp2080
F0.0
aF2.0
asI32
(lp2081
F0.0
aF2.0
asI33
(lp2082
F0.0
aF2.0
asI34
(lp2083
F0.0
aF2.0
asI35
(lp2084
F0.0
aF1.9943502824858759
asI36
(lp2085
F0.0
aF2.0000000000000004
asI37
(lp2086
F0.0
aF2.0
asI38
(lp2087
F0.0
aF1.9964664310954068
asI39
(lp2088
F0.0
aF1.9999999999999998
asI40
(lp2089
F0.0
aF2.0
asI41
(lp2090
F0.0
aF1.9999999999999998
asI42
(lp2091
F0.0
aF2.0
asI43
(lp2092
F0.0
aF2.0000000000000004
asI44
(lp2093
F0.0
aF1.9955947136563879
asI45
(lp2094
F0.0
aF2.0000000000000004
asI46
(lp2095
F0.0
aF2.0
asI47
(lp2096
F0.0
aF2.0
asI48
(lp2097
F0.0
aF2.0
asI49
(lp2098
F0.0
aF2.0
asI50
(lp2099
F0.0
aF2.0
asI51
(lp2100
F0.0
aF2.0
asI52
(lp2101
F0.0
aF2.0
asI53
(lp2102
F0.0
aF2.0
asI54
(lp2103
F0.0
aF1.9999999999999998
asI55
(lp2104
F0.0
aF2.0
asI56
(lp2105
F0.0
aF1.9969512195121948
asI57
(lp2106
F0.0
aF2.0
asI58
(lp2107
F0.14492753623188406
aF2.0
asI59
(lp2108
F0.0
aF2.0
asI60
(lp2109
F0.0
aF2.0
asI61
(lp2110
F0.0
aF2.0
asI62
(lp2111
F0.061833094441790096
aF2.0
asI63
(lp2112
F0.0
aF1.9999999999999998
asI64
(lp2113
F0.0
aF2.0
asI65
(lp2114
F0.0
aF1.9935483870967743
asI66
(lp2115
F0.0
aF1.9999999999999996
asI67
(lp2116
F0.0
aF2.0
asI68
(lp2117
F0.0
aF2.0
asI69
(lp2118
F0.0
aF2.0
asI70
(lp2119
F0.0
aF1.9999999999999998
asI71
(lp2120
F0.0
aF2.0000000000000004
asI72
(lp2121
F1.1707376648754275
aF2.0
asI73
(lp2122
F0.0
aF1.9999999999999998
asI74
(lp2123
F0.0
aF2.0
asI75
(lp2124
F0.0
aF2.0
asI76
(lp2125
F1.0982645619865226
aF1.9999999999999998
asI77
(lp2126
F0.0
aF1.9999999999999998
asI78
(lp2127
F0.0
aF1.996268656716418
asI79
(lp2128
F0.0
aF2.0
asI80
(lp2129
F0.0
aF2.0
asI81
(lp2130
F1.208592132505176
aF1.996031746031746
asI82
(lp2131
F0.0
aF1.9951456310679614
asI83
(lp2132
F0.0
aF2.0
asI84
(lp2133
F0.0
aF1.9893617021276593
asI85
(lp2134
F0.0
aF1.9938650306748467
asI86
(lp2135
F0.0
aF2.0
asI87
(lp2136
F0.0
aF1.9999999999999998
asI88
(lp2137
F0.0
aF2.0
asI89
(lp2138
F0.0
aF1.9999999999999998
asI90
(lp2139
F0.0
aF1.995412844036697
asI91
(lp2140
F0.0
aF2.0
asI92
(lp2141
F0.0
aF2.0
asI93
(lp2142
F0.0
aF1.9980879541108985
asI94
(lp2143
F0.0
aF1.9928057553956835
asI95
(lp2144
F0.12536231884057972
aF2.0
asI96
(lp2145
F0.0
aF2.0
asI97
(lp2146
F0.18357487922705312
aF2.0
asI98
(lp2147
F0.0
aF1.9999999999999998
asI99
(lp2148
F0.0
aF2.0
assI24
(dp2149
I24
(lp2150
F1.9999999999999998
aF1.9999999999999998
asI25
(lp2151
F0.0
aF2.0000000000000004
asI26
(lp2152
F0.0
aF2.0
asI27
(lp2153
F0.0
aF1.9939024390243907
asI28
(lp2154
F0.0
aF2.0
asI29
(lp2155
F0.0
aF2.0
asI30
(lp2156
F0.0
aF2.0
asI31
(lp2157
F0.0
aF1.9937106918238996
asI32
(lp2158
F0.0
aF1.994350282485876
asI33
(lp2159
F0.0
aF2.0
asI34
(lp2160
F0.0
aF2.0
asI35
(lp2161
F0.0
aF2.0
asI36
(lp2162
F0.0
aF2.0
asI37
(lp2163
F0.0
aF2.0000000000000004
asI38
(lp2164
F0.0
aF2.0000000000000004
asI39
(lp2165
F0.0
aF2.0
asI40
(lp2166
F0.0
aF2.0000000000000004
asI41
(lp2167
F0.0
aF2.0
asI42
(lp2168
F0.0
aF2.0
asI43
(lp2169
F0.0
aF2.0000000000000004
asI44
(lp2170
F0.15787400164750545
aF1.9955947136563883
asI45
(lp2171
F0.0
aF2.0
asI46
(lp2172
F0.0
aF2.0
asI47
(lp2173
F0.0
aF2.0
asI48
(lp2174
F0.0
aF2.0000000000000004
asI49
(lp2175
F0.0
aF1.996784565916399
asI50
(lp2176
F0.0
aF2.0000000000000004
asI51
(lp2177
F0.0
aF2.0
asI52
(lp2178
F0.0
aF2.0
asI53
(lp2179
F0.0
aF1.991735537190083
asI54
(lp2180
F0.0
aF2.0
asI55
(lp2181
F0.0
aF2.0
asI56
(lp2182
F0.0
aF1.9969512195121952
asI57
(lp2183
F0.1351734513786419
aF2.0
asI58
(lp2184
F0.0
aF2.0000000000000004
asI59
(lp2185
F0.0
aF2.0
asI60
(lp2186
F0.0
aF2.0
asI61
(lp2187
F0.0
aF2.0000000000000004
asI62
(lp2188
F0.0
aF1.9999999999999998
asI63
(lp2189
F0.0
aF2.0000000000000004
asI64
(lp2190
F0.0
aF1.9999999999999998
asI65
(lp2191
F0.0
aF2.0000000000000004
asI66
(lp2192
F0.19074421513445905
aF1.9999999999999996
asI67
(lp2193
F0.0
aF2.0000000000000004
asI68
(lp2194
F0.0
aF1.9999999999999998
asI69
(lp2195
F0.0
aF1.9999999999999998
asI70
(lp2196
F0.0
aF2.0
asI71
(lp2197
F0.0
aF2.0
asI72
(lp2198
F0.0
aF2.0000000000000004
asI73
(lp2199
F0.0
aF2.0
asI74
(lp2200
F0.0
aF2.0
asI75
(lp2201
F0.0
aF2.0
asI76
(lp2202
F0.0
aF2.0
asI77
(lp2203
F0.0
aF1.9999999999999998
asI78
(lp2204
F0.0
aF1.992537313432836
asI79
(lp2205
F0.0
aF1.9999999999999998
asI80
(lp2206
F0.0
aF1.9999999999999998
asI81
(lp2207
F0.0
aF2.0
asI82
(lp2208
F0.0
aF2.0000000000000004
asI83
(lp2209
F0.0
aF2.0
asI84
(lp2210
F0.0
aF1.9893617021276593
asI85
(lp2211
F0.0
aF1.9938650306748467
asI86
(lp2212
F0.0
aF2.0
asI87
(lp2213
F0.0
aF2.0
asI88
(lp2214
F0.0
aF2.0000000000000004
asI89
(lp2215
F0.0
aF1.9999999999999998
asI90
(lp2216
F0.0
aF2.0
asI91
(lp2217
F0.0
aF2.0000000000000004
asI92
(lp2218
F0.0
aF2.0
asI93
(lp2219
F0.0
aF1.9942638623326958
asI94
(lp2220
F0.0
aF1.9856115107913674
asI95
(lp2221
F0.0
aF2.0
asI96
(lp2222
F0.0
aF2.0
asI97
(lp2223
F0.0
aF2.0
asI98
(lp2224
F0.0
aF2.0
asI99
(lp2225
F0.0
aF2.0000000000000004
assI25
(dp2226
I25
(lp2227
F2.0
aF2.0
asI26
(lp2228
F0.0
aF1.9999999999999996
asI27
(lp2229
F0.0
aF2.0
asI28
(lp2230
F0.0
aF2.0
asI29
(lp2231
F0.0
aF1.9926470588235294
asI30
(lp2232
F0.0
aF2.0
asI31
(lp2233
F0.0
aF1.9937106918238996
asI32
(lp2234
F0.0
aF1.9943502824858756
asI33
(lp2235
F0.0
aF2.0
asI34
(lp2236
F0.0
aF1.9999999999999998
asI35
(lp2237
F0.0
aF2.0
asI36
(lp2238
F0.0
aF2.0000000000000004
asI37
(lp2239
F0.0
aF2.0
asI38
(lp2240
F0.0
aF2.0
asI39
(lp2241
F0.0
aF1.9999999999999996
asI40
(lp2242
F0.0
aF1.9940119760479047
asI41
(lp2243
F0.29829787234042554
aF2.0
asI42
(lp2244
F0.0
aF2.0
asI43
(lp2245
F0.0
aF2.0
asI44
(lp2246
F0.0
aF1.9955947136563879
asI45
(lp2247
F0.0
aF2.0000000000000004
asI46
(lp2248
F0.0
aF2.0
asI47
(lp2249
F0.1736734170725455
aF2.0
asI48
(lp2250
F0.0
aF2.0
asI49
(lp2251
F0.0
aF2.0
asI50
(lp2252
F0.0
aF2.0
asI51
(lp2253
F0.0
aF2.0
asI52
(lp2254
F0.0
aF2.0000000000000004
asI53
(lp2255
F0.0
aF1.991735537190083
asI54
(lp2256
F0.0
aF2.0000000000000004
asI55
(lp2257
F0.0
aF2.0
asI56
(lp2258
F0.0
aF1.9939024390243902
asI57
(lp2259
F0.0
aF2.0
asI58
(lp2260
F0.0
aF2.0
asI59
(lp2261
F0.10472935729247052
aF2.0000000000000004
asI60
(lp2262
F0.0
aF2.0
asI61
(lp2263
F0.0
aF2.0
asI62
(lp2264
F0.0
aF2.0
asI63
(lp2265
F0.0
aF1.9999999999999998
asI64
(lp2266
F0.0
aF2.0
asI65
(lp2267
F0.0
aF1.9935483870967743
asI66
(lp2268
F0.0
aF1.9999999999999996
asI67
(lp2269
F0.0
aF1.9999999999999998
asI68
(lp2270
F0.0
aF1.9999999999999998
asI69
(lp2271
F0.0
aF2.0
asI70
(lp2272
F0.0
aF1.9999999999999996
asI71
(lp2273
F0.0
aF2.0000000000000004
asI72
(lp2274
F0.0
aF2.0
asI73
(lp2275
F0.0
aF1.9999999999999998
asI74
(lp2276
F0.0
aF2.0
asI75
(lp2277
F0.0
aF1.9951219512195124
asI76
(lp2278
F0.0
aF1.9999999999999998
asI77
(lp2279
F0.0
aF2.0000000000000004
asI78
(lp2280
F0.0
aF1.992537313432836
asI79
(lp2281
F0.0
aF2.0
asI80
(lp2282
F0.0
aF1.993421052631579
asI81
(lp2283
F0.0
aF1.9999999999999998
asI82
(lp2284
F0.14057013013840117
aF1.9951456310679612
asI83
(lp2285
F0.0
aF2.0
asI84
(lp2286
F0.0
aF1.9999999999999996
asI85
(lp2287
F0.0
aF1.9938650306748467
asI86
(lp2288
F0.0
aF2.0
asI87
(lp2289
F0.0
aF2.0
asI88
(lp2290
F0.0
aF2.0
asI89
(lp2291
F0.0
aF1.9999999999999996
asI90
(lp2292
F0.0
aF1.995412844036697
asI91
(lp2293
F0.0
aF2.0000000000000004
asI92
(lp2294
F0.0
aF1.994897959183673
asI93
(lp2295
F0.0
aF1.9961759082217974
asI94
(lp2296
F0.0
aF1.9928057553956835
asI95
(lp2297
F0.0
aF1.9999999999999998
asI96
(lp2298
F0.0
aF2.0
asI97
(lp2299
F0.0
aF2.0
asI98
(lp2300
F0.1462147451756556
aF2.0
asI99
(lp2301
F0.0
aF2.0
assI26
(dp2302
I26
(lp2303
F2.0000000000000004
aF2.0000000000000004
asI27
(lp2304
F0.0
aF1.9999999999999998
asI28
(lp2305
F0.0
aF2.0
asI29
(lp2306
F0.0
aF1.9898998060762765
asI30
(lp2307
F0.0
aF1.9999999999999998
asI31
(lp2308
F1.1112205404658235
aF1.9999999999999998
asI32
(lp2309
F0.0
aF1.9943502824858754
asI33
(lp2310
F0.0
aF2.0
asI34
(lp2311
F0.0
aF1.9999999999999993
asI35
(lp2312
F0.0
aF2.0
asI36
(lp2313
F0.0
aF2.0
asI37
(lp2314
F0.0
aF2.0
asI38
(lp2315
F0.0
aF2.0000000000000004
asI39
(lp2316
F0.0
aF1.9999999999999998
asI40
(lp2317
F0.0
aF1.9999999999999998
asI41
(lp2318
F0.0
aF2.0
asI42
(lp2319
F0.0
aF1.9968253968253968
asI43
(lp2320
F0.0
aF1.9999999999999996
asI44
(lp2321
F0.0
aF2.0
asI45
(lp2322
F1.0657075899011383
aF2.0
asI46
(lp2323
F0.0
aF2.0
asI47
(lp2324
F0.19803389381702635
aF2.0
asI48
(lp2325
F0.0
aF2.0000000000000004
asI49
(lp2326
F0.0
aF1.9967845659163985
asI50
(lp2327
F0.0
aF1.9999999999999998
asI51
(lp2328
F0.0
aF1.9999999999999998
asI52
(lp2329
F0.10322091701402046
aF2.0
asI53
(lp2330
F0.0
aF2.0000000000000004
asI54
(lp2331
F0.0
aF1.9999999999999998
asI55
(lp2332
F0.0
aF2.0
asI56
(lp2333
F0.0
aF1.9972527472527473
asI57
(lp2334
F0.0
aF2.0
asI58
(lp2335
F1.0528666985188724
aF1.9999999999999998
asI59
(lp2336
F0.0
aF1.9972527472527473
asI60
(lp2337
F0.0
aF1.9999999999999998
asI61
(lp2338
F0.0
aF2.0
asI62
(lp2339
F0.3159340659340659
aF1.9999999999999998
asI63
(lp2340
F0.0
aF1.9999999999999998
asI64
(lp2341
F0.0
aF2.0000000000000004
asI65
(lp2342
F1.2080999645515775
aF2.0
asI66
(lp2343
F0.0
aF1.9999999999999996
asI67
(lp2344
F0.0
aF2.0000000000000004
asI68
(lp2345
F0.0
aF1.9999999999999998
asI69
(lp2346
F0.0
aF2.0
asI70
(lp2347
F0.0
aF1.9999999999999998
asI71
(lp2348
F1.132032793704718
aF2.0
asI72
(lp2349
F0.0
aF1.9999999999999996
asI73
(lp2350
F0.0
aF1.9999999999999996
asI74
(lp2351
F0.0
aF1.9999999999999998
asI75
(lp2352
F0.0
aF1.9999999999999998
asI76
(lp2353
F0.0
aF1.9999999999999996
asI77
(lp2354
F0.0
aF1.9999999999999996
asI78
(lp2355
F0.0
aF2.0
asI79
(lp2356
F0.0
aF2.0
asI80
(lp2357
F1.158473105841527
aF2.0
asI81
(lp2358
F0.0
aF1.9999999999999998
asI82
(lp2359
F0.0
aF1.995145631067961
asI83
(lp2360
F0.0
aF1.9999999999999998
asI84
(lp2361
F0.0
aF2.0
asI85
(lp2362
F0.0
aF1.993865030674846
asI86
(lp2363
F0.0
aF2.0
asI87
(lp2364
F0.0
aF1.9999999999999996
asI88
(lp2365
F0.18966924164943966
aF2.0
asI89
(lp2366
F0.0
aF2.0
asI90
(lp2367
F0.0
aF1.9954128440366972
asI91
(lp2368
F0.0
aF2.0
asI92
(lp2369
F0.0
aF1.9999999999999996
asI93
(lp2370
F0.0
aF1.9961759082217967
asI94
(lp2371
F0.0
aF2.0000000000000004
asI95
(lp2372
F0.0
aF1.9999999999999998
asI96
(lp2373
F0.0
aF1.9999999999999998
asI97
(lp2374
F0.0
aF2.0000000000000004
asI98
(lp2375
F0.0
aF1.997252747252747
asI99
(lp2376
F0.0
aF1.9999999999999998
assI27
(dp2377
I27
(lp2378
F1.9878048780487807
aF1.9878048780487807
asI28
(lp2379
F0.0
aF1.99390243902439
asI29
(lp2380
F0.0
aF1.9865494978479195
asI30
(lp2381
F0.0
aF1.9999999999999998
asI31
(lp2382
F0.0
aF1.9876131308482896
asI32
(lp2383
F0.0
aF1.9943502824858759
asI33
(lp2384
F0.27044964327194293
aF1.9939024390243905
asI34
(lp2385
F0.0
aF1.9999999999999998
asI35
(lp2386
F0.0
aF2.0
asI36
(lp2387
F0.0
aF1.9939024390243905
asI37
(lp2388
F0.0
aF1.99390243902439
asI38
(lp2389
F0.0
aF2.0000000000000004
asI39
(lp2390
F0.0
aF1.9967948717948716
asI40
(lp2391
F0.0
aF1.9939024390243902
asI41
(lp2392
F0.0
aF2.0
asI42
(lp2393
F0.0
aF1.99390243902439
asI43
(lp2394
F0.0
aF1.99390243902439
asI44
(lp2395
F0.0
aF1.9894971526807779
asI45
(lp2396
F0.0
aF1.99390243902439
asI46
(lp2397
F0.0
aF1.9939024390243902
asI47
(lp2398
F0.0
aF1.9939024390243902
asI48
(lp2399
F0.0
aF2.0
asI49
(lp2400
F0.0
aF2.0
asI50
(lp2401
F0.0
aF1.9939024390243902
asI51
(lp2402
F0.0
aF2.0
asI52
(lp2403
F0.0
aF1.9870058873002527
asI53
(lp2404
F0.0
aF1.9856379762144727
asI54
(lp2405
F0.0
aF1.9939024390243902
asI55
(lp2406
F0.0
aF1.9939024390243905
asI56
(lp2407
F1.3079268292682928
aF1.9939024390243902
asI57
(lp2408
F0.0
aF1.99390243902439
asI58
(lp2409
F0.0
aF1.99390243902439
asI59
(lp2410
F0.0
aF1.9939024390243905
asI60
(lp2411
F0.0
aF1.9939024390243905
asI61
(lp2412
F0.0
aF1.9939024390243902
asI62
(lp2413
F0.0
aF1.9939024390243902
asI63
(lp2414
F0.0
aF1.9939024390243902
asI64
(lp2415
F0.0
aF1.9999999999999998
asI65
(lp2416
F0.0
aF1.99390243902439
asI66
(lp2417
F0.0
aF1.9999999999999998
asI67
(lp2418
F0.0
aF1.9939024390243902
asI68
(lp2419
F0.0
aF1.9939024390243902
asI69
(lp2420
F0.0
aF1.9939024390243902
asI70
(lp2421
F0.0
aF2.0
asI71
(lp2422
F0.0
aF1.99390243902439
asI72
(lp2423
F0.0
aF1.99390243902439
asI73
(lp2424
F0.0
aF1.9939024390243905
asI74
(lp2425
F0.0
aF2.0
asI75
(lp2426
F0.0
aF2.0
asI76
(lp2427
F0.0
aF2.0000000000000004
asI77
(lp2428
F0.0
aF2.0
asI78
(lp2429
F0.0
aF1.986439752457226
asI79
(lp2430
F0.0
aF1.9939024390243902
asI80
(lp2431
F0.0
aF1.99390243902439
asI81
(lp2432
F0.0
aF1.9999999999999998
asI82
(lp2433
F0.0
aF1.9890480700923514
asI83
(lp2434
F0.0
aF1.9939024390243902
asI84
(lp2435
F0.0
aF1.9939024390243902
asI85
(lp2436
F0.0
aF1.9877674696992367
asI86
(lp2437
F0.0
aF1.99390243902439
asI87
(lp2438
F0.0
aF2.0
asI88
(lp2439
F1.4389036464622071
aF1.9889519439748855
asI89
(lp2440
F0.0
aF1.99390243902439
asI90
(lp2441
F1.3125978966211682
aF1.9893152830610874
asI91
(lp2442
F0.0
aF1.9939024390243905
asI92
(lp2443
F0.0
aF1.99390243902439
asI93
(lp2444
F0.0
aF1.9980879541108987
asI94
(lp2445
F0.0
aF1.9867081944200737
asI95
(lp2446
F0.0
aF1.9939024390243898
asI96
(lp2447
F0.0
aF2.0
asI97
(lp2448
F0.0
aF1.9939024390243905
asI98
(lp2449
F0.0
aF1.9939024390243905
asI99
(lp2450
F0.0
aF1.9939024390243902
assI28
(dp2451
I28
(lp2452
F2.0
aF2.0
asI29
(lp2453
F0.0
aF1.9852941176470587
asI30
(lp2454
F0.0
aF2.0
asI31
(lp2455
F0.0
aF2.0
asI32
(lp2456
F0.0
aF1.9943502824858756
asI33
(lp2457
F0.0
aF2.0
asI34
(lp2458
F0.0
aF1.9999999999999996
asI35
(lp2459
F0.0
aF1.9999999999999998
asI36
(lp2460
F1.2288244079368464
aF2.0
asI37
(lp2461
F0.0
aF2.0
asI38
(lp2462
F0.0
aF2.0
asI39
(lp2463
F0.0
aF2.0
asI40
(lp2464
F0.0
aF2.0000000000000004
asI41
(lp2465
F0.0
aF2.0000000000000004
asI42
(lp2466
F0.0
aF1.9968253968253968
asI43
(lp2467
F0.0
aF2.0
asI44
(lp2468
F0.0
aF1.9955947136563879
asI45
(lp2469
F0.0
aF2.0
asI46
(lp2470
F0.0
aF1.9999999999999996
asI47
(lp2471
F0.0
aF2.0
asI48
(lp2472
F0.0
aF2.0
asI49
(lp2473
F0.0
aF2.0
asI50
(lp2474
F0.0
aF2.0
asI51
(lp2475
F0.0
aF2.0
asI52
(lp2476
F0.0
aF2.0
asI53
(lp2477
F0.0
aF1.9917355371900825
asI54
(lp2478
F0.0
aF1.9999999999999998
asI55
(lp2479
F0.0
aF2.0
asI56
(lp2480
F0.0
aF1.9969512195121952
asI57
(lp2481
F0.0
aF1.9999999999999998
asI58
(lp2482
F0.0
aF1.9999999999999998
asI59
(lp2483
F0.0
aF2.0000000000000004
asI60
(lp2484
F0.0
aF1.9999999999999998
asI61
(lp2485
F0.0
aF2.0000000000000004
asI62
(lp2486
F0.0
aF2.0
asI63
(lp2487
F0.0
aF2.0
asI64
(lp2488
F0.0
aF2.0
asI65
(lp2489
F0.0
aF1.993548387096774
asI66
(lp2490
F0.0
aF1.9999999999999996
asI67
(lp2491
F0.9552481398540777
aF1.9999999999999996
asI68
(lp2492
F0.0
aF2.0000000000000004
asI69
(lp2493
F1.1703618756371048
aF1.9999999999999996
asI70
(lp2494
F0.0
aF1.9999999999999996
asI71
(lp2495
F0.0
aF2.0
asI72
(lp2496
F0.0
aF1.9999999999999998
asI73
(lp2497
F0.0
aF1.9999999999999998
asI74
(lp2498
F0.0
aF1.9900652504538099
asI75
(lp2499
F0.0
aF1.9999999999999998
asI76
(lp2500
F0.0
aF2.0000000000000004
asI77
(lp2501
F0.0
aF2.0
asI78
(lp2502
F0.0
aF1.9925373134328355
asI79
(lp2503
F0.0
aF1.9999999999999998
asI80
(lp2504
F0.0
aF2.0000000000000004
asI81
(lp2505
F0.0
aF2.0
asI82
(lp2506
F0.0
aF1.9951456310679614
asI83
(lp2507
F0.0
aF2.0
asI84
(lp2508
F0.0
aF1.9999999999999998
asI85
(lp2509
F0.0
aF1.9999999999999996
asI86
(lp2510
F0.0
aF1.9999999999999998
asI87
(lp2511
F0.0
aF1.9999999999999998
asI88
(lp2512
F0.0
aF2.0
asI89
(lp2513
F0.0
aF2.0
asI90
(lp2514
F0.0
aF1.9954128440366974
asI91
(lp2515
F0.0
aF2.0
asI92
(lp2516
F0.0
aF1.9999999999999998
asI93
(lp2517
F0.0
aF1.9980879541108985
asI94
(lp2518
F0.0
aF1.9999999999999998
asI95
(lp2519
F0.0
aF1.9999999999999998
asI96
(lp2520
F0.0
aF1.9999999999999996
asI97
(lp2521
F0.0
aF1.9969969969969974
asI98
(lp2522
F0.0
aF2.0
asI99
(lp2523
F0.0
aF1.9999999999999998
assI29
(dp2524
I29
(lp2525
F1.9852941176470587
aF1.9852941176470587
asI30
(lp2526
F0.0
aF1.9926470588235294
asI31
(lp2527
F0.0
aF1.9926470588235292
asI32
(lp2528
F0.0
aF1.9869973413094053
asI33
(lp2529
F0.0
aF1.9999999999999998
asI34
(lp2530
F0.0
aF1.9926470588235288
asI35
(lp2531
F0.0
aF1.992647058823529
asI36
(lp2532
F0.0
aF1.9926470588235292
asI37
(lp2533
F0.0
aF2.0
asI38
(lp2534
F0.0
aF1.9964664310954068
asI39
(lp2535
F0.0
aF1.9999999999999996
asI40
(lp2536
F0.0
aF1.9926470588235299
asI41
(lp2537
F0.0
aF1.9926470588235294
asI42
(lp2538
F0.0
aF1.9894724556489263
asI43
(lp2539
F0.0
aF1.992647058823529
asI44
(lp2540
F0.0
aF1.9926470588235294
asI45
(lp2541
F0.0
aF1.9926470588235297
asI46
(lp2542
F0.0
aF1.9926470588235292
asI47
(lp2543
F0.0
aF1.9926470588235294
asI48
(lp2544
F0.0
aF2.0000000000000004
asI49
(lp2545
F0.0
aF2.0000000000000004
asI50
(lp2546
F0.0
aF1.9926470588235292
asI51
(lp2547
F0.1092436974789916
aF1.9926470588235294
asI52
(lp2548
F0.0
aF1.9926470588235297
asI53
(lp2549
F0.0
aF1.9926470588235292
asI54
(lp2550
F0.0
aF1.992647058823529
asI55
(lp2551
F0.0
aF1.9926470588235294
asI56
(lp2552
F0.0
aF2.0
asI57
(lp2553
F0.0
aF1.9926470588235294
asI58
(lp2554
F0.0
aF1.9926470588235297
asI59
(lp2555
F1.343188052423042
aF1.9926470588235297
asI60
(lp2556
F0.0
aF1.9852941176470587
asI61
(lp2557
F0.0
aF1.9926470588235292
asI62
(lp2558
F0.0
aF1.992647058823529
asI63
(lp2559
F0.37696850393700787
aF1.9926470588235292
asI64
(lp2560
F1.0386745607333843
aF2.0
asI65
(lp2561
F0.0
aF1.9861954459203037
asI66
(lp2562
F0.0
aF1.9999999999999996
asI67
(lp2563
F0.0
aF1.9926470588235288
asI68
(lp2564
F0.0
aF1.9926470588235292
asI69
(lp2565
F0.0
aF1.992647058823529
asI70
(lp2566
F0.0
aF1.9926470588235292
asI71
(lp2567
F0.0
aF1.9926470588235292
asI72
(lp2568
F0.0
aF1.9999999999999998
asI73
(lp2569
F0.0
aF1.9926470588235294
asI74
(lp2570
F0.0
aF2.0
asI75
(lp2571
F0.0
aF1.9926470588235294
asI76
(lp2572
F0.0
aF1.9999999999999998
asI77
(lp2573
F0.0
aF1.9999999999999996
asI78
(lp2574
F0.0
aF1.9889157155399473
asI79
(lp2575
F0.0
aF1.9926470588235297
asI80
(lp2576
F0.0
aF1.9926470588235294
asI81
(lp2577
F0.0
aF1.9926470588235294
asI82
(lp2578
F0.0
aF1.9877926898914904
asI83
(lp2579
F0.0
aF1.9926470588235292
asI84
(lp2580
F0.0
aF1.9999999999999998
asI85
(lp2581
F0.0
aF1.9865120894983754
asI86
(lp2582
F0.0
aF1.992647058823529
asI87
(lp2583
F0.0
aF2.0
asI88
(lp2584
F0.18695398951659872
aF1.9926470588235292
asI89
(lp2585
F0.0
aF1.992647058823529
asI90
(lp2586
F0.0
aF2.0
asI91
(lp2587
F0.0
aF1.9926470588235294
asI92
(lp2588
F0.0
aF1.9999999999999998
asI93
(lp2589
F0.0
aF1.990735012934428
asI94
(lp2590
F0.0
aF1.9782585696148964
asI95
(lp2591
F0.0
aF1.9999999999999998
asI96
(lp2592
F0.0
aF1.9999999999999998
asI97
(lp2593
F0.0
aF2.0000000000000004
asI98
(lp2594
F0.0
aF1.9926470588235294
asI99
(lp2595
F0.0
aF1.9999999999999998
assI30
(dp2596
I30
(lp2597
F1.992727272727273
aF1.992727272727273
asI31
(lp2598
F0.0
aF2.0
asI32
(lp2599
F0.0
aF1.9943502824858756
asI33
(lp2600
F0.0
aF2.0
asI34
(lp2601
F0.0
aF2.0
asI35
(lp2602
F0.0
aF1.9999999999999998
asI36
(lp2603
F0.0
aF1.9999999999999996
asI37
(lp2604
F0.0
aF2.0
asI38
(lp2605
F0.0
aF2.0
asI39
(lp2606
F0.0
aF2.0
asI40
(lp2607
F0.0
aF2.0000000000000004
asI41
(lp2608
F0.0
aF2.0
asI42
(lp2609
F0.0
aF2.0
asI43
(lp2610
F0.0
aF2.0
asI44
(lp2611
F0.0
aF1.9955947136563879
asI45
(lp2612
F0.0
aF2.0
asI46
(lp2613
F0.0
aF2.0
asI47
(lp2614
F0.0
aF2.0
asI48
(lp2615
F0.0
aF2.0000000000000004
asI49
(lp2616
F0.0
aF2.0
asI50
(lp2617
F0.0
aF2.0
asI51
(lp2618
F0.060443086325439266
aF1.9963636363636361
asI52
(lp2619
F0.0
aF2.0
asI53
(lp2620
F0.0
aF2.0
asI54
(lp2621
F0.0
aF2.0
asI55
(lp2622
F0.0
aF2.0
asI56
(lp2623
F0.0
aF1.9969512195121955
asI57
(lp2624
F0.0
aF1.9999999999999998
asI58
(lp2625
F0.0
aF2.0
asI59
(lp2626
F0.0
aF1.9963636363636363
asI60
(lp2627
F0.0
aF1.9999999999999996
asI61
(lp2628
F0.0
aF2.0
asI62
(lp2629
F0.0
aF2.0
asI63
(lp2630
F0.0
aF1.9963636363636363
asI64
(lp2631
F0.0
aF1.9999999999999996
asI65
(lp2632
F0.0
aF1.993548387096774
asI66
(lp2633
F0.024801864801864804
aF2.0
asI67
(lp2634
F0.0
aF1.9963636363636363
asI68
(lp2635
F0.0
aF1.9918699186991873
asI69
(lp2636
F0.0
aF1.9999999999999998
asI70
(lp2637
F0.0
aF1.9999999999999998
asI71
(lp2638
F0.0
aF2.0
asI72
(lp2639
F0.0
aF1.9999999999999998
asI73
(lp2640
F0.0
aF2.0
asI74
(lp2641
F0.0
aF1.9999999999999998
asI75
(lp2642
F0.0
aF2.0000000000000004
asI76
(lp2643
F0.0
aF1.9999999999999998
asI77
(lp2644
F0.0
aF1.9999999999999996
asI78
(lp2645
F0.0
aF1.996268656716418
asI79
(lp2646
F0.0
aF2.0
asI80
(lp2647
F0.0
aF2.0000000000000004
asI81
(lp2648
F0.026118326118326117
aF1.9999999999999998
asI82
(lp2649
F0.0
aF1.9951456310679612
asI83
(lp2650
F0.0
aF1.9999999999999998
asI84
(lp2651
F0.0
aF2.0
asI85
(lp2652
F0.0
aF1.9938650306748467
asI86
(lp2653
F0.0
aF2.0000000000000004
asI87
(lp2654
F0.13562449420016187
aF2.0
asI88
(lp2655
F0.0
aF1.9963636363636363
asI89
(lp2656
F0.0
aF1.9963636363636363
asI90
(lp2657
F0.0
aF2.0000000000000004
asI91
(lp2658
F0.0
aF2.0
asI92
(lp2659
F0.0
aF2.0
asI93
(lp2660
F0.10369546323657222
aF1.9961759082217974
asI94
(lp2661
F0.0
aF1.9928057553956837
asI95
(lp2662
F0.0
aF2.0
asI96
(lp2663
F0.0
aF2.0000000000000004
asI97
(lp2664
F0.0
aF2.0
asI98
(lp2665
F0.0
aF2.0
asI99
(lp2666
F0.0
aF1.9999999999999996
assI31
(dp2667
I31
(lp2668
F1.9874213836477987
aF1.9874213836477987
asI32
(lp2669
F0.0
aF1.9943502824858759
asI33
(lp2670
F1.1825182903350018
aF1.9937106918238994
asI34
(lp2671
F0.0
aF1.993710691823899
asI35
(lp2672
F0.0
aF2.0
asI36
(lp2673
F0.0
aF1.9937106918238994
asI37
(lp2674
F0.0
aF2.0
asI38
(lp2675
F0.0
aF2.0
asI39
(lp2676
F1.055817610062893
aF1.9999999999999998
asI40
(lp2677
F0.0
aF1.9877226678718038
asI41
(lp2678
F0.0
aF1.9937106918238994
asI42
(lp2679
F0.0
aF2.0
asI43
(lp2680
F0.0
aF1.9937106918238992
asI44
(lp2681
F0.0
aF1.9893054054802868
asI45
(lp2682
F0.0
aF2.0
asI46
(lp2683
F0.0
aF2.0
asI47
(lp2684
F0.0
aF1.9937106918238994
asI48
(lp2685
F0.0
aF2.0000000000000004
asI49
(lp2686
F0.0
aF1.9967845659163983
asI50
(lp2687
F0.0
aF1.9937106918238994
asI51
(lp2688
F0.0
aF1.9937106918238992
asI52
(lp2689
F0.0
aF1.9937106918238998
asI53
(lp2690
F0.0
aF1.9937106918238994
asI54
(lp2691
F0.4448163927774397
aF1.9999999999999998
asI55
(lp2692
F0.0
aF2.0
asI56
(lp2693
F0.0
aF1.9969512195121952
asI57
(lp2694
F0.0
aF2.0
asI58
(lp2695
F0.0
aF1.9937106918238992
asI59
(lp2696
F0.0
aF2.0000000000000004
asI60
(lp2697
F0.0
aF2.0
asI61
(lp2698
F0.0
aF1.9937106918238996
asI62
(lp2699
F0.0
aF1.9999999999999996
asI63
(lp2700
F0.0
aF1.9937106918238992
asI64
(lp2701
F0.0
aF1.9999999999999998
asI65
(lp2702
F0.0
aF1.9935483870967743
asI66
(lp2703
F0.0
aF1.9999999999999996
asI67
(lp2704
F0.0
aF1.9999999999999996
asI68
(lp2705
F0.0
aF1.9937106918238994
asI69
(lp2706
F0.0
aF1.9937106918238987
asI70
(lp2707
F0.0
aF1.993710691823899
asI71
(lp2708
F0.0
aF1.996845425867508
asI72
(lp2709
F0.0
aF2.0
asI73
(lp2710
F0.0
aF1.9999999999999998
asI74
(lp2711
F0.0
aF1.9937106918238994
asI75
(lp2712
F0.0
aF2.0
asI76
(lp2713
F0.0
aF1.9999999999999998
asI77
(lp2714
F0.0
aF1.9999999999999996
asI78
(lp2715
F0.0
aF1.9925373134328355
asI79
(lp2716
F0.0
aF1.9999999999999998
asI80
(lp2717
F0.0
aF2.0
asI81
(lp2718
F0.0
aF1.993710691823899
asI82
(lp2719
F0.0
aF1.9951456310679612
asI83
(lp2720
F0.0
aF1.9999999999999998
asI84
(lp2721
F0.0
aF1.9830723939515589
asI85
(lp2722
F0.0
aF1.9875757224987456
asI86
(lp2723
F0.0
aF1.9999999999999996
asI87
(lp2724
F0.0
aF1.9999999999999998
asI88
(lp2725
F0.0
aF1.9937106918238994
asI89
(lp2726
F0.0
aF1.9937106918238992
asI90
(lp2727
F0.0
aF1.9954128440366974
asI91
(lp2728
F0.0
aF1.9937106918238996
asI92
(lp2729
F0.0
aF1.9999999999999996
asI93
(lp2730
F0.0
aF1.9937106918238992
asI94
(lp2731
F0.0
aF1.9999999999999993
asI95
(lp2732
F0.0
aF1.9999999999999998
asI96
(lp2733
F0.0
aF1.9999999999999996
asI97
(lp2734
F0.0
aF2.0000000000000004
asI98
(lp2735
F0.0
aF2.0
asI99
(lp2736
F0.0
aF1.9999999999999998
assI32
(dp2737
I32
(lp2738
F1.9887005649717515
aF1.9887005649717515
asI33
(lp2739
F0.0
aF2.0
asI34
(lp2740
F0.0
aF2.0000000000000004
asI35
(lp2741
F0.0
aF1.9999999999999996
asI36
(lp2742
F0.0
aF1.9943502824858759
asI37
(lp2743
F0.0
aF2.0
asI38
(lp2744
F0.0
aF1.9943502824858759
asI39
(lp2745
F0.0
aF1.9999999999999998
asI40
(lp2746
F0.045874352988937384
aF2.0
asI41
(lp2747
F0.0
aF1.9943502824858752
asI42
(lp2748
F1.1721280602636535
aF2.0
asI43
(lp2749
F0.0
aF1.9943502824858756
asI44
(lp2750
F0.0
aF1.9955947136563879
asI45
(lp2751
F0.0
aF2.0
asI46
(lp2752
F0.0
aF1.9943502824858759
asI47
(lp2753
F0.0
aF1.994350282485876
asI48
(lp2754
F0.0
aF1.9943502824858759
asI49
(lp2755
F1.2558722546187804
aF1.9999999999999998
asI50
(lp2756
F0.0
aF1.9943502824858756
asI51
(lp2757
F0.0
aF1.9999999999999993
asI52
(lp2758
F0.0
aF2.0
asI53
(lp2759
F0.0
aF1.9943502824858759
asI54
(lp2760
F0.0
aF1.9999999999999998
asI55
(lp2761
F0.0
aF2.0
asI56
(lp2762
F0.0
aF1.9943502824858754
asI57
(lp2763
F0.0
aF1.994350282485876
asI58
(lp2764
F0.0
aF1.9943502824858756
asI59
(lp2765
F0.0
aF1.9943502824858759
asI60
(lp2766
F1.392724266225713
aF2.0
asI61
(lp2767
F0.0
aF1.9943502824858756
asI62
(lp2768
F0.0
aF2.0
asI63
(lp2769
F0.0
aF1.9943502824858754
asI64
(lp2770
F0.0
aF2.0
asI65
(lp2771
F0.0
aF1.993548387096774
asI66
(lp2772
F0.0
aF1.9999999999999998
asI67
(lp2773
F0.0
aF1.9943502824858759
asI68
(lp2774
F0.0
aF1.9943502824858756
asI69
(lp2775
F0.0
aF1.9999999999999998
asI70
(lp2776
F0.12596697088222514
aF1.9943502824858756
asI71
(lp2777
F0.0
aF1.994350282485876
asI72
(lp2778
F0.0
aF1.9943502824858759
asI73
(lp2779
F0.0
aF1.9999999999999998
asI74
(lp2780
F0.0
aF1.9943502824858754
asI75
(lp2781
F0.0
aF1.9943502824858759
asI76
(lp2782
F0.0
aF1.9943502824858754
asI77
(lp2783
F0.0
aF2.0000000000000004
asI78
(lp2784
F0.0
aF2.0
asI79
(lp2785
F0.0
aF1.9999999999999998
asI80
(lp2786
F0.0
aF1.9943502824858756
asI81
(lp2787
F0.0
aF1.9943502824858756
asI82
(lp2788
F1.1318907355603094
aF1.995145631067961
asI83
(lp2789
F1.273920174958994
aF1.9943502824858756
asI84
(lp2790
F0.3074888808751052
aF1.989361702127659
asI85
(lp2791
F0.0
aF1.988215313160722
asI86
(lp2792
F0.0
aF1.9943502824858756
asI87
(lp2793
F1.192174219182216
aF2.0
asI88
(lp2794
F0.0
aF1.9943502824858759
asI89
(lp2795
F0.0
aF1.9999999999999998
asI90
(lp2796
F0.0
aF1.9954128440366972
asI91
(lp2797
F0.0
aF1.9999999999999996
asI92
(lp2798
F0.0
aF1.9999999999999998
asI93
(lp2799
F0.026422961834699853
aF1.9924382365967739
asI94
(lp2800
F0.0
aF1.9943502824858756
asI95
(lp2801
F0.0
aF1.9943502824858756
asI96
(lp2802
F0.0
aF1.9943502824858756
asI97
(lp2803
F0.0815900646409121
aF2.0
asI98
(lp2804
F0.0
aF1.9943502824858756
asI99
(lp2805
F0.0
aF1.9999999999999998
assI33
(dp2806
I33
(lp2807
F2.0
aF2.0
asI34
(lp2808
F0.0
aF1.9999999999999998
asI35
(lp2809
F0.0
aF1.9999999999999998
asI36
(lp2810
F0.0
aF2.0
asI37
(lp2811
F0.0
aF1.9999999999999998
asI38
(lp2812
F0.0
aF2.0
asI39
(lp2813
F0.0
aF1.9999999999999996
asI40
(lp2814
F0.0
aF1.9940119760479047
asI41
(lp2815
F1.2583673469387755
aF2.0
asI42
(lp2816
F0.0
aF2.0
asI43
(lp2817
F0.0
aF1.9999999999999996
asI44
(lp2818
F0.0
aF1.9955947136563876
asI45
(lp2819
F0.0
aF2.0
asI46
(lp2820
F0.0
aF1.9999999999999998
asI47
(lp2821
F0.0
aF2.0
asI48
(lp2822
F0.0
aF2.0
asI49
(lp2823
F0.0
aF2.0
asI50
(lp2824
F0.0
aF2.0
asI51
(lp2825
F0.0
aF1.9999999999999998
asI52
(lp2826
F0.0
aF2.0
asI53
(lp2827
F0.0
aF1.9999999999999998
asI54
(lp2828
F0.5037305244678516
aF2.0
asI55
(lp2829
F0.0
aF2.0
asI56
(lp2830
F0.0
aF1.9969512195121955
asI57
(lp2831
F0.0
aF2.0
asI58
(lp2832
F0.0
aF1.9999999999999998
asI59
(lp2833
F0.0
aF2.0000000000000004
asI60
(lp2834
F0.0
aF2.0
asI61
(lp2835
F0.0
aF2.0
asI62
(lp2836
F0.0
aF2.0
asI63
(lp2837
F0.0
aF2.0
asI64
(lp2838
F0.0
aF2.0
asI65
(lp2839
F0.0
aF1.9999999999999998
asI66
(lp2840
F1.46436420722135
aF2.0
asI67
(lp2841
F0.0
aF2.0
asI68
(lp2842
F0.0
aF1.9999999999999998
asI69
(lp2843
F0.0
aF2.0
asI70
(lp2844
F0.0
aF2.0
asI71
(lp2845
F0.0
aF2.0
asI72
(lp2846
F0.0
aF1.9999999999999998
asI73
(lp2847
F0.0
aF2.0000000000000004
asI74
(lp2848
F1.3069591472952817
aF2.0000000000000004
asI75
(lp2849
F0.0
aF2.0
asI76
(lp2850
F0.0
aF2.0000000000000004
asI77
(lp2851
F0.0
aF2.0
asI78
(lp2852
F0.0
aF1.9925373134328357
asI79
(lp2853
F0.0
aF2.0
asI80
(lp2854
F0.0
aF1.9999999999999998
asI81
(lp2855
F0.0
aF1.9999999999999996
asI82
(lp2856
F0.0
aF1.9951456310679612
asI83
(lp2857
F0.0
aF2.0
asI84
(lp2858
F0.0
aF1.9999999999999998
asI85
(lp2859
F0.0
aF1.9999999999999996
asI86
(lp2860
F0.0
aF1.9999999999999998
asI87
(lp2861
F0.0
aF1.9999999999999996
asI88
(lp2862
F0.0
aF2.0
asI89
(lp2863
F0.0
aF1.9999999999999998
asI90
(lp2864
F0.0
aF1.9954128440366974
asI91
(lp2865
F0.0
aF2.0
asI92
(lp2866
F1.2278911564625852
aF1.9999999999999998
asI93
(lp2867
F0.0
aF1.9980879541108987
asI94
(lp2868
F0.0
aF1.9928057553956833
asI95
(lp2869
F0.0
aF1.9999999999999998
asI96
(lp2870
F0.0
aF1.9999999999999996
asI97
(lp2871
F0.0
aF2.0
asI98
(lp2872
F0.0
aF2.0
asI99
(lp2873
F0.0
aF1.9999999999999998
assI34
(dp2874
I34
(lp2875
F1.9999999999999996
aF1.9999999999999996
asI35
(lp2876
F0.0
aF1.9999999999999998
asI36
(lp2877
F0.0
aF1.9999999999999998
asI37
(lp2878
F0.0
aF1.9999999999999998
asI38
(lp2879
F0.0
aF2.0000000000000004
asI39
(lp2880
F0.0
aF1.9999999999999998
asI40
(lp2881
F0.0
aF2.0
asI41
(lp2882
F0.3478453038674033
aF1.9999999999999998
asI42
(lp2883
F0.0
aF1.9968253968253968
asI43
(lp2884
F1.180110497237569
aF1.9999999999999996
asI44
(lp2885
F0.38608318932995833
aF1.9955947136563876
asI45
(lp2886
F0.0
aF1.9999999999999998
asI46
(lp2887
F0.0
aF1.9999999999999998
asI47
(lp2888
F0.0
aF1.9999999999999996
asI48
(lp2889
F0.0
aF2.0
asI49
(lp2890
F0.0
aF2.0000000000000004
asI50
(lp2891
F0.0
aF1.9999999999999998
asI51
(lp2892
F0.0
aF1.9999999999999998
asI52
(lp2893
F0.0
aF1.9999999999999998
asI53
(lp2894
F0.0
aF1.9917355371900822
asI54
(lp2895
F0.0
aF1.9999999999999998
asI55
(lp2896
F0.0
aF2.0
asI56
(lp2897
F0.0
aF1.9969512195121952
asI57
(lp2898
F0.0
aF1.9999999999999996
asI58
(lp2899
F0.0
aF2.0
asI59
(lp2900
F0.0
aF1.9999999999999998
asI60
(lp2901
F0.0
aF2.0
asI61
(lp2902
F0.0
aF1.9999999999999998
asI62
(lp2903
F0.0
aF1.9999999999999998
asI63
(lp2904
F0.0
aF1.9999999999999996
asI64
(lp2905
F0.0
aF1.9999999999999998
asI65
(lp2906
F0.0
aF1.993548387096774
asI66
(lp2907
F0.0
aF1.9999999999999998
asI67
(lp2908
F0.0
aF1.9999999999999998
asI68
(lp2909
F0.0
aF1.9999999999999998
asI69
(lp2910
F0.0
aF1.9999999999999996
asI70
(lp2911
F0.0
aF1.9999999999999996
asI71
(lp2912
F0.0
aF1.9999999999999998
asI72
(lp2913
F0.0
aF1.9999999999999998
asI73
(lp2914
F0.0
aF2.0
asI74
(lp2915
F0.0
aF2.0
asI75
(lp2916
F0.0
aF1.995121951219512
asI76
(lp2917
F0.0
aF1.9999999999999998
asI77
(lp2918
F0.0
aF1.9999999999999998
asI78
(lp2919
F0.0
aF1.9925373134328355
asI79
(lp2920
F0.0
aF1.9999999999999998
asI80
(lp2921
F0.0
aF1.9934210526315785
asI81
(lp2922
F1.5985705516092255
aF1.9999999999999998
asI82
(lp2923
F0.0
aF1.995145631067961
asI83
(lp2924
F0.0
aF1.9999999999999998
asI84
(lp2925
F0.0
aF2.0
asI85
(lp2926
F0.0
aF1.9938650306748462
asI86
(lp2927
F0.0
aF1.9999999999999993
asI87
(lp2928
F0.0
aF2.0
asI88
(lp2929
F0.0
aF1.9999999999999998
asI89
(lp2930
F0.38196295092622684
aF1.9999999999999996
asI90
(lp2931
F0.0
aF1.9954128440366974
asI91
(lp2932
F0.0
aF2.0
asI92
(lp2933
F0.0
aF2.0
asI93
(lp2934
F0.0
aF1.9980879541108985
asI94
(lp2935
F0.0
aF1.9999999999999998
asI95
(lp2936
F0.0
aF1.9999999999999996
asI96
(lp2937
F0.0
aF2.0
asI97
(lp2938
F1.1326630497901216
aF1.9999999999999998
asI98
(lp2939
F0.0
aF2.0
asI99
(lp2940
F0.0
aF1.9999999999999998
assI35
(dp2941
I35
(lp2942
F2.0
aF2.0
asI36
(lp2943
F0.0
aF1.9943502824858756
asI37
(lp2944
F0.0
aF1.9999999999999998
asI38
(lp2945
F0.0
aF2.0
asI39
(lp2946
F0.0
aF2.0
asI40
(lp2947
F0.0
aF2.0
asI41
(lp2948
F0.0
aF2.0
asI42
(lp2949
F0.0
aF1.9911756793112727
asI43
(lp2950
F0.0
aF1.9999999999999996
asI44
(lp2951
F0.0
aF1.9899449961422633
asI45
(lp2952
F1.196039122775044
aF1.9999999999999998
asI46
(lp2953
F0.0
aF2.0
asI47
(lp2954
F0.0
aF2.0
asI48
(lp2955
F0.0
aF2.0000000000000004
asI49
(lp2956
F0.0
aF2.0
asI50
(lp2957
F0.0
aF2.0
asI51
(lp2958
F0.0
aF1.9943502824858756
asI52
(lp2959
F0.0
aF2.0
asI53
(lp2960
F0.0
aF2.0
asI54
(lp2961
F0.0
aF1.9999999999999998
asI55
(lp2962
F0.0
aF1.9999999999999998
asI56
(lp2963
F0.0
aF1.9913015019980709
asI57
(lp2964
F0.0
aF2.0
asI58
(lp2965
F0.0
aF1.9943502824858754
asI59
(lp2966
F0.0
aF2.0
asI60
(lp2967
F0.0
aF1.9999999999999998
asI61
(lp2968
F0.0
aF2.0
asI62
(lp2969
F0.0
aF1.9999999999999998
asI63
(lp2970
F0.0
aF2.0
asI64
(lp2971
F0.0
aF2.0
asI65
(lp2972
F0.0
aF1.9935483870967743
asI66
(lp2973
F0.0
aF2.0
asI67
(lp2974
F0.0
aF1.9999999999999996
asI68
(lp2975
F0.0
aF1.9999999999999998
asI69
(lp2976
F0.0
aF1.9999999999999998
asI70
(lp2977
F0.0
aF1.9999999999999998
asI71
(lp2978
F0.0
aF2.0
asI72
(lp2979
F0.0
aF2.0
asI73
(lp2980
F0.1870184899845917
aF1.9999999999999998
asI74
(lp2981
F0.0
aF2.0
asI75
(lp2982
F0.0
aF2.0
asI76
(lp2983
F0.0
aF1.9999999999999998
asI77
(lp2984
F1.241893883566691
aF2.0
asI78
(lp2985
F0.0
aF1.9925373134328352
asI79
(lp2986
F0.0
aF2.0
asI80
(lp2987
F0.0
aF1.9943502824858754
asI81
(lp2988
F0.0
aF1.9999999999999998
asI82
(lp2989
F0.0
aF2.0
asI83
(lp2990
F0.0
aF2.0000000000000004
asI84
(lp2991
F0.0
aF2.0
asI85
(lp2992
F0.0
aF1.9938650306748467
asI86
(lp2993
F0.0
aF1.9943502824858759
asI87
(lp2994
F0.0
aF1.9943502824858756
asI88
(lp2995
F0.0
aF2.0
asI89
(lp2996
F0.0
aF1.9999999999999996
asI90
(lp2997
F0.0
aF2.0
asI91
(lp2998
F0.0
aF1.9943502824858759
asI92
(lp2999
F0.0
aF1.9943502824858752
asI93
(lp3000
F0.0
aF1.996175908221797
asI94
(lp3001
F0.0
aF2.0
asI95
(lp3002
F0.0
aF1.9999999999999998
asI96
(lp3003
F0.0
aF1.9999999999999996
asI97
(lp3004
F0.0
aF2.0
asI98
(lp3005
F0.0
aF1.9999999999999998
asI99
(lp3006
F0.0
aF1.9999999999999998
assI36
(dp3007
I36
(lp3008
F2.0
aF2.0
asI37
(lp3009
F0.0
aF2.0
asI38
(lp3010
F0.0
aF2.0000000000000004
asI39
(lp3011
F0.0
aF2.0
asI40
(lp3012
F0.0
aF2.0000000000000004
asI41
(lp3013
F0.0
aF2.0
asI42
(lp3014
F0.0
aF1.9968253968253966
asI43
(lp3015
F0.0
aF2.0
asI44
(lp3016
F0.0
aF1.9955947136563879
asI45
(lp3017
F0.0
aF1.9999999999999998
asI46
(lp3018
F0.0
aF2.0
asI47
(lp3019
F0.0
aF2.0
asI48
(lp3020
F0.0
aF2.0
asI49
(lp3021
F0.0
aF2.0
asI50
(lp3022
F0.0
aF2.0
asI51
(lp3023
F0.0
aF2.0
asI52
(lp3024
F0.0
aF2.0
asI53
(lp3025
F0.0
aF2.0
asI54
(lp3026
F0.0
aF2.0000000000000004
asI55
(lp3027
F0.0
aF2.0000000000000004
asI56
(lp3028
F0.0
aF1.9939024390243907
asI57
(lp3029
F0.0
aF1.9999999999999998
asI58
(lp3030
F0.0
aF2.0
asI59
(lp3031
F0.0
aF2.0
asI60
(lp3032
F0.0
aF2.0
asI61
(lp3033
F0.0
aF2.0
asI62
(lp3034
F0.0
aF2.0
asI63
(lp3035
F0.0
aF2.0
asI64
(lp3036
F0.0
aF2.0
asI65
(lp3037
F0.0
aF1.9935483870967743
asI66
(lp3038
F0.0
aF2.0
asI67
(lp3039
F0.0
aF2.0
asI68
(lp3040
F0.0
aF2.0
asI69
(lp3041
F0.0
aF2.0
asI70
(lp3042
F0.0
aF1.9999999999999996
asI71
(lp3043
F0.0
aF1.9999999999999998
asI72
(lp3044
F0.0
aF2.0000000000000004
asI73
(lp3045
F0.0
aF2.0000000000000004
asI74
(lp3046
F0.0
aF2.0
asI75
(lp3047
F0.0
aF2.0
asI76
(lp3048
F0.0
aF2.0000000000000004
asI77
(lp3049
F0.0
aF2.0
asI78
(lp3050
F0.0
aF1.992537313432836
asI79
(lp3051
F0.0
aF2.0000000000000004
asI80
(lp3052
F0.0
aF1.9934210526315788
asI81
(lp3053
F0.0
aF1.9999999999999996
asI82
(lp3054
F0.0
aF1.9951456310679614
asI83
(lp3055
F0.0
aF2.0
asI84
(lp3056
F0.0
aF2.0
asI85
(lp3057
F0.0
aF1.9938650306748464
asI86
(lp3058
F0.0
aF2.0
asI87
(lp3059
F0.0
aF2.0
asI88
(lp3060
F0.0
aF2.0
asI89
(lp3061
F0.0
aF2.0
asI90
(lp3062
F0.0
aF1.9954128440366974
asI91
(lp3063
F0.0
aF2.0
asI92
(lp3064
F0.0
aF2.0
asI93
(lp3065
F0.0
aF1.9942638623326958
asI94
(lp3066
F0.0
aF1.992805755395683
asI95
(lp3067
F0.0
aF1.9999999999999998
asI96
(lp3068
F0.0
aF2.0
asI97
(lp3069
F0.0
aF2.0
asI98
(lp3070
F0.0
aF2.0000000000000004
asI99
(lp3071
F0.0
aF2.0
assI37
(dp3072
I37
(lp3073
F2.0000000000000004
aF2.0000000000000004
asI38
(lp3074
F0.0
aF2.0
asI39
(lp3075
F0.0
aF2.0
asI40
(lp3076
F0.0
aF2.0
asI41
(lp3077
F0.0
aF1.9999999999999996
asI42
(lp3078
F0.0
aF2.0
asI43
(lp3079
F0.0
aF1.9999999999999998
asI44
(lp3080
F0.0
aF1.995594713656388
asI45
(lp3081
F0.0
aF1.9999999999999996
asI46
(lp3082
F0.0
aF2.0
asI47
(lp3083
F0.0
aF2.0
asI48
(lp3084
F0.0
aF2.0
asI49
(lp3085
F0.0
aF1.9967845659163987
asI50
(lp3086
F0.0
aF2.0
asI51
(lp3087
F0.0
aF1.9999999999999998
asI52
(lp3088
F0.0
aF1.9999999999999998
asI53
(lp3089
F0.0
aF2.0
asI54
(lp3090
F0.0
aF2.0000000000000004
asI55
(lp3091
F0.0
aF2.0
asI56
(lp3092
F0.0
aF1.9999999999999996
asI57
(lp3093
F0.0
aF2.0
asI58
(lp3094
F0.0
aF2.0
asI59
(lp3095
F0.0
aF2.0
asI60
(lp3096
F0.0
aF2.0
asI61
(lp3097
F0.0
aF1.9999999999999998
asI62
(lp3098
F0.0
aF2.0
asI63
(lp3099
F0.0
aF2.0
asI64
(lp3100
F0.0
aF2.0000000000000004
asI65
(lp3101
F0.0
aF2.0
asI66
(lp3102
F0.0
aF2.0
asI67
(lp3103
F0.0
aF2.0
asI68
(lp3104
F0.0
aF2.0
asI69
(lp3105
F0.0
aF1.9999999999999998
asI70
(lp3106
F0.0
aF2.0
asI71
(lp3107
F0.0
aF2.0
asI72
(lp3108
F0.0
aF2.0000000000000004
asI73
(lp3109
F0.0
aF2.0
asI74
(lp3110
F0.0
aF2.0
asI75
(lp3111
F0.0
aF1.9999999999999998
asI76
(lp3112
F0.0
aF1.9999999999999998
asI77
(lp3113
F0.0
aF2.0
asI78
(lp3114
F0.0
aF1.992537313432836
asI79
(lp3115
F0.0
aF2.0
asI80
(lp3116
F0.0
aF1.9934210526315792
asI81
(lp3117
F0.0
aF2.0
asI82
(lp3118
F0.0
aF1.9999999999999998
asI83
(lp3119
F0.0
aF1.9999999999999996
asI84
(lp3120
F0.0
aF1.9999999999999998
asI85
(lp3121
F0.0
aF1.993865030674846
asI86
(lp3122
F0.0
aF2.0
asI87
(lp3123
F0.0
aF1.9999999999999998
asI88
(lp3124
F0.0
aF1.9999999999999998
asI89
(lp3125
F0.0
aF1.9999999999999996
asI90
(lp3126
F0.0
aF1.9954128440366972
asI91
(lp3127
F0.0
aF2.0
asI92
(lp3128
F0.0
aF1.9999999999999996
asI93
(lp3129
F0.0
aF1.994263862332696
asI94
(lp3130
F0.4702604113891985
aF1.9928057553956833
asI95
(lp3131
F0.0
aF1.9999999999999998
asI96
(lp3132
F0.0
aF1.9999999999999998
asI97
(lp3133
F0.0
aF2.0
asI98
(lp3134
F0.0
aF1.9999999999999998
asI99
(lp3135
F0.0
aF2.0
assI38
(dp3136
I38
(lp3137
F2.0000000000000004
aF2.0000000000000004
asI39
(lp3138
F0.0
aF2.0
asI40
(lp3139
F0.0
aF2.0
asI41
(lp3140
F0.0
aF1.9964664310954066
asI42
(lp3141
F0.0
aF2.0
asI43
(lp3142
F0.0
aF1.9964664310954063
asI44
(lp3143
F0.0
aF1.995594713656388
asI45
(lp3144
F0.0
aF2.0
asI46
(lp3145
F0.0
aF2.0
asI47
(lp3146
F0.0
aF1.9964664310954068
asI48
(lp3147
F0.0
aF2.0000000000000004
asI49
(lp3148
F0.0
aF2.0
asI50
(lp3149
F0.0
aF1.9964664310954068
asI51
(lp3150
F0.0
aF2.0000000000000004
asI52
(lp3151
F0.0
aF1.9964664310954063
asI53
(lp3152
F0.0
aF1.988201968285489
asI54
(lp3153
F0.0
aF2.0
asI55
(lp3154
F0.0
aF2.0
asI56
(lp3155
F0.0
aF2.0000000000000004
asI57
(lp3156
F0.0
aF2.0
asI58
(lp3157
F0.0
aF2.0000000000000004
asI59
(lp3158
F0.0
aF2.0
asI60
(lp3159
F0.0
aF2.0000000000000004
asI61
(lp3160
F0.1281370096205927
aF2.0
asI62
(lp3161
F0.0
aF2.0000000000000004
asI63
(lp3162
F0.6503436187084388
aF2.0000000000000004
asI64
(lp3163
F0.0
aF2.0
asI65
(lp3164
F0.0
aF1.9964664310954066
asI66
(lp3165
F0.9471051916281599
aF2.0
asI67
(lp3166
F0.0
aF1.9964664310954063
asI68
(lp3167
F0.0
aF1.9918699186991875
asI69
(lp3168
F0.0
aF1.9964664310954066
asI70
(lp3169
F0.0
aF2.0
asI71
(lp3170
F0.0
aF2.0
asI72
(lp3171
F0.0
aF2.0000000000000004
asI73
(lp3172
F0.0
aF2.0
asI74
(lp3173
F0.0
aF2.0000000000000004
asI75
(lp3174
F0.0
aF1.9951219512195124
asI76
(lp3175
F0.0
aF2.0
asI77
(lp3176
F0.0
aF2.0
asI78
(lp3177
F0.0
aF1.996268656716418
asI79
(lp3178
F0.0
aF2.0
asI80
(lp3179
F0.0
aF1.9934210526315792
asI81
(lp3180
F0.0
aF2.0
asI82
(lp3181
F0.0
aF1.9951456310679614
asI83
(lp3182
F0.0
aF2.0
asI84
(lp3183
F0.0
aF1.9964664310954066
asI85
(lp3184
F0.0
aF1.993865030674847
asI86
(lp3185
F0.0
aF2.0000000000000004
asI87
(lp3186
F0.0
aF2.0
asI88
(lp3187
F0.0
aF2.0
asI89
(lp3188
F0.0
aF1.9999999999999998
asI90
(lp3189
F0.0
aF1.9954128440366976
asI91
(lp3190
F0.20420308722335873
aF1.9964664310954066
asI92
(lp3191
F0.072618446671955
aF2.0
asI93
(lp3192
F0.0
aF1.9980879541108985
asI94
(lp3193
F0.0
aF1.992805755395684
asI95
(lp3194
F0.0
aF2.0
asI96
(lp3195
F1.008461967639948
aF2.0
asI97
(lp3196
F1.5099374993367927
aF2.0000000000000004
asI98
(lp3197
F0.0
aF1.9964664310954066
asI99
(lp3198
F0.0
aF2.0000000000000004
assI39
(dp3199
I39
(lp3200
F1.9935897435897434
aF1.9935897435897434
asI40
(lp3201
F0.1934784277598649
aF2.0
asI41
(lp3202
F0.0
aF1.9999999999999996
asI42
(lp3203
F0.0
aF1.9968253968253966
asI43
(lp3204
F1.0583333333333333
aF1.9967948717948716
asI44
(lp3205
F0.0
aF1.9955947136563874
asI45
(lp3206
F1.2582712985938793
aF2.0
asI46
(lp3207
F0.0
aF2.0
asI47
(lp3208
F0.0
aF1.9999999999999998
asI48
(lp3209
F0.0
aF2.0
asI49
(lp3210
F0.0
aF2.0
asI50
(lp3211
F1.0267543859649122
aF1.9999999999999998
asI51
(lp3212
F0.0
aF1.9999999999999998
asI52
(lp3213
F0.0
aF2.0
asI53
(lp3214
F0.0
aF2.0000000000000004
asI54
(lp3215
F0.0
aF1.9999999999999996
asI55
(lp3216
F0.0
aF2.0
asI56
(lp3217
F0.0
aF2.0
asI57
(lp3218
F0.0
aF2.0
asI58
(lp3219
F0.0
aF1.9999999999999998
asI59
(lp3220
F0.0
aF2.0
asI60
(lp3221
F0.0
aF2.0
asI61
(lp3222
F0.0
aF1.9999999999999998
asI62
(lp3223
F0.0
aF1.9999999999999998
asI63
(lp3224
F0.0
aF1.9967948717948714
asI64
(lp3225
F0.0
aF2.0
asI65
(lp3226
F0.0
aF1.9999999999999998
asI66
(lp3227
F0.0
aF1.9999999999999998
asI67
(lp3228
F0.0
aF1.9999999999999996
asI68
(lp3229
F0.0
aF2.0
asI69
(lp3230
F0.0
aF1.9999999999999996
asI70
(lp3231
F0.0
aF2.0
asI71
(lp3232
F0.0
aF2.0
asI72
(lp3233
F0.0
aF2.0
asI73
(lp3234
F0.0
aF1.9999999999999998
asI74
(lp3235
F1.1802584670231728
aF1.9999999999999998
asI75
(lp3236
F0.0
aF2.0
asI76
(lp3237
F0.3482565735750449
aF1.9999999999999998
asI77
(lp3238
F0.0
aF1.9999999999999998
asI78
(lp3239
F0.0
aF1.9925373134328357
asI79
(lp3240
F0.0
aF1.9999999999999996
asI80
(lp3241
F0.0
aF1.9934210526315788
asI81
(lp3242
F0.0
aF1.9999999999999996
asI82
(lp3243
F0.0
aF1.9999999999999996
asI83
(lp3244
F0.0
aF1.9999999999999998
asI84
(lp3245
F0.0
aF1.9999999999999996
asI85
(lp3246
F0.0
aF1.9938650306748462
asI86
(lp3247
F0.0
aF1.9999999999999998
asI87
(lp3248
F0.0
aF1.9999999999999996
asI88
(lp3249
F0.0
aF2.0
asI89
(lp3250
F0.0
aF1.9999999999999996
asI90
(lp3251
F0.0
aF2.0
asI91
(lp3252
F0.0
aF2.0
asI92
(lp3253
F0.0
aF1.9999999999999998
asI93
(lp3254
F0.0
aF1.9980879541108987
asI94
(lp3255
F0.0
aF1.9928057553956835
asI95
(lp3256
F0.0
aF1.9999999999999998
asI96
(lp3257
F0.0
aF1.9999999999999998
asI97
(lp3258
F0.0
aF1.9999999999999998
asI98
(lp3259
F0.26930530709600475
aF1.9967948717948718
asI99
(lp3260
F0.0
aF1.9999999999999998
assI40
(dp3261
I40
(lp3262
F1.9999999999999998
aF1.9999999999999998
asI41
(lp3263
F0.0
aF1.9999999999999998
asI42
(lp3264
F0.0
aF2.0
asI43
(lp3265
F0.0
aF2.0
asI44
(lp3266
F0.0
aF1.9955947136563876
asI45
(lp3267
F0.0
aF2.0000000000000004
asI46
(lp3268
F0.0
aF2.0
asI47
(lp3269
F0.0
aF2.0000000000000004
asI48
(lp3270
F0.0
aF2.0000000000000004
asI49
(lp3271
F0.2553670793461309
aF1.9999999999999998
asI50
(lp3272
F0.0
aF2.0
asI51
(lp3273
F0.0
aF2.0
asI52
(lp3274
F0.0
aF2.0
asI53
(lp3275
F0.0
aF2.0
asI54
(lp3276
F0.0
aF2.0000000000000004
asI55
(lp3277
F0.0
aF2.0
asI56
(lp3278
F0.0
aF1.9969512195121955
asI57
(lp3279
F0.0
aF2.0
asI58
(lp3280
F0.0
aF2.0
asI59
(lp3281
F0.0
aF2.0000000000000004
asI60
(lp3282
F0.0
aF2.0000000000000004
asI61
(lp3283
F0.0
aF2.0
asI62
(lp3284
F0.0
aF2.0
asI63
(lp3285
F0.0
aF2.0000000000000004
asI64
(lp3286
F0.0
aF2.0
asI65
(lp3287
F0.0
aF1.9935483870967743
asI66
(lp3288
F0.0
aF2.0000000000000004
asI67
(lp3289
F0.0
aF2.0
asI68
(lp3290
F0.0
aF2.0000000000000004
asI69
(lp3291
F0.0
aF2.0
asI70
(lp3292
F0.9482266236757255
aF2.0
asI71
(lp3293
F0.0
aF2.0
asI72
(lp3294
F0.0
aF2.0
asI73
(lp3295
F0.9365133369624388
aF2.0
asI74
(lp3296
F0.0
aF1.9940119760479047
asI75
(lp3297
F0.0
aF2.0
asI76
(lp3298
F0.0
aF1.9749036957931276
asI77
(lp3299
F0.0
aF2.0
asI78
(lp3300
F0.0
aF1.9925373134328364
asI79
(lp3301
F0.0
aF2.0
asI80
(lp3302
F0.0
aF2.0
asI81
(lp3303
F0.0
aF1.9999999999999998
asI82
(lp3304
F0.0
aF2.0
asI83
(lp3305
F0.0
aF2.0
asI84
(lp3306
F0.9357879984711428
aF2.0
asI85
(lp3307
F0.0
aF1.9938650306748469
asI86
(lp3308
F0.0
aF2.0000000000000004
asI87
(lp3309
F0.0
aF2.0
asI88
(lp3310
F0.0
aF1.9940119760479045
asI89
(lp3311
F0.0
aF2.0
asI90
(lp3312
F0.0
aF1.9954128440366978
asI91
(lp3313
F0.0
aF2.0
asI92
(lp3314
F0.0
aF2.0
asI93
(lp3315
F0.3602775328883342
aF1.996175908221797
asI94
(lp3316
F0.0
aF2.0
asI95
(lp3317
F0.0
aF2.0
asI96
(lp3318
F0.0
aF2.0
asI97
(lp3319
F0.0
aF2.0
asI98
(lp3320
F0.0
aF2.0
asI99
(lp3321
F0.0
aF2.0000000000000004
assI41
(dp3322
I41
(lp3323
F2.0
aF2.0
asI42
(lp3324
F0.0
aF1.9968253968253964
asI43
(lp3325
F0.0
aF2.0
asI44
(lp3326
F0.0
aF1.9955947136563879
asI45
(lp3327
F0.0
aF2.0
asI46
(lp3328
F0.0
aF1.9933333333333334
asI47
(lp3329
F0.0
aF2.0
asI48
(lp3330
F0.0
aF2.0
asI49
(lp3331
F0.0
aF1.996784565916399
asI50
(lp3332
F0.0
aF2.0
asI51
(lp3333
F0.0
aF2.0
asI52
(lp3334
F0.0
aF2.0
asI53
(lp3335
F0.0
aF1.9917355371900827
asI54
(lp3336
F0.0
aF2.0
asI55
(lp3337
F0.0
aF2.0
asI56
(lp3338
F0.0
aF1.996951219512195
asI57
(lp3339
F0.0
aF2.0
asI58
(lp3340
F0.0
aF1.9999999999999998
asI59
(lp3341
F0.0
aF2.0
asI60
(lp3342
F0.0
aF2.0000000000000004
asI61
(lp3343
F0.0
aF2.0
asI62
(lp3344
F0.0
aF1.9999999999999998
asI63
(lp3345
F0.0
aF2.0
asI64
(lp3346
F1.3664502164502166
aF2.0
asI65
(lp3347
F0.0
aF1.9935483870967743
asI66
(lp3348
F0.0
aF1.9999999999999996
asI67
(lp3349
F0.0
aF1.9921259842519683
asI68
(lp3350
F0.0
aF2.0
asI69
(lp3351
F0.0
aF1.9999999999999998
asI70
(lp3352
F0.0
aF2.0
asI71
(lp3353
F0.0
aF2.0
asI72
(lp3354
F0.0
aF2.0
asI73
(lp3355
F0.0
aF1.9999999999999998
asI74
(lp3356
F0.0
aF2.0
asI75
(lp3357
F0.0
aF2.0
asI76
(lp3358
F0.0
aF2.0
asI77
(lp3359
F0.0
aF2.0
asI78
(lp3360
F0.0
aF1.9962686567164178
asI79
(lp3361
F0.0
aF2.0
asI80
(lp3362
F0.0
aF1.993421052631579
asI81
(lp3363
F0.0
aF1.9999999999999998
asI82
(lp3364
F0.0
aF1.9951456310679612
asI83
(lp3365
F0.0
aF1.9999999999999998
asI84
(lp3366
F0.0
aF2.0
asI85
(lp3367
F0.0
aF1.9938650306748462
asI86
(lp3368
F0.0
aF2.0
asI87
(lp3369
F1.539564787339268
aF2.0
asI88
(lp3370
F0.0
aF2.0
asI89
(lp3371
F0.0
aF1.9999999999999998
asI90
(lp3372
F0.0
aF1.995412844036697
asI91
(lp3373
F0.0
aF2.0000000000000004
asI92
(lp3374
F0.0
aF2.0
asI93
(lp3375
F0.0
aF1.9980879541108982
asI94
(lp3376
F0.0
aF1.9928057553956837
asI95
(lp3377
F0.0
aF1.9999999999999998
asI96
(lp3378
F0.0
aF2.0000000000000004
asI97
(lp3379
F0.0
aF2.0
asI98
(lp3380
F0.0
aF1.9999999999999998
asI99
(lp3381
F0.0
aF2.0000000000000004
assI42
(dp3382
I42
(lp3383
F1.9936507936507935
aF1.9936507936507935
asI43
(lp3384
F0.0
aF1.9968253968253968
asI44
(lp3385
F0.0
aF1.9955947136563876
asI45
(lp3386
F0.1527905785970302
aF1.9968253968253968
asI46
(lp3387
F0.0
aF2.0
asI47
(lp3388
F0.0
aF1.9968253968253968
asI48
(lp3389
F0.0
aF2.0
asI49
(lp3390
F0.0
aF1.996825396825397
asI50
(lp3391
F0.0
aF2.0
asI51
(lp3392
F0.0
aF1.9968253968253964
asI52
(lp3393
F0.0
aF2.0
asI53
(lp3394
F0.0
aF1.9885609340154795
asI54
(lp3395
F0.0
aF2.0
asI55
(lp3396
F0.0
aF2.0
asI56
(lp3397
F0.0
aF1.996951219512195
asI57
(lp3398
F1.0555950968762358
aF1.9964412811387897
asI58
(lp3399
F0.0
aF1.9999999999999998
asI59
(lp3400
F0.0
aF1.9968253968253966
asI60
(lp3401
F0.0
aF1.9968253968253966
asI61
(lp3402
F0.0
aF1.9999999999999996
asI62
(lp3403
F0.0
aF1.9968253968253964
asI63
(lp3404
F0.0
aF1.9968253968253964
asI64
(lp3405
F0.0
aF1.996825396825397
asI65
(lp3406
F0.0
aF1.9935483870967743
asI66
(lp3407
F1.034188034188034
aF1.9999999999999996
asI67
(lp3408
F0.0
aF1.9999999999999993
asI68
(lp3409
F0.0
aF2.0
asI69
(lp3410
F0.0
aF2.0
asI70
(lp3411
F0.0
aF2.0
asI71
(lp3412
F0.0
aF2.0
asI72
(lp3413
F0.0
aF2.0
asI73
(lp3414
F0.0
aF1.9999999999999998
asI74
(lp3415
F0.0
aF1.9914778032425091
asI75
(lp3416
F0.0
aF1.9919473480449086
asI76
(lp3417
F0.0
aF1.977717116570619
asI77
(lp3418
F0.0362663906142167
aF1.9968253968253966
asI78
(lp3419
F0.0
aF1.9893627102582325
asI79
(lp3420
F0.0
aF1.9999999999999998
asI80
(lp3421
F0.0
aF2.0
asI81
(lp3422
F0.0
aF1.9968253968253968
asI82
(lp3423
F0.0
aF1.9999999999999996
asI83
(lp3424
F0.0
aF2.0
asI84
(lp3425
F0.0
aF1.9861870989530563
asI85
(lp3426
F0.0
aF1.9938650306748464
asI86
(lp3427
F0.0
aF1.9968253968253962
asI87
(lp3428
F0.5106118411756394
aF1.9999999999999996
asI88
(lp3429
F0.0
aF1.9968253968253966
asI89
(lp3430
F0.0
aF1.9968253968253964
asI90
(lp3431
F0.07868064657055483
aF1.9922382408620938
asI91
(lp3432
F0.2195488721804511
aF2.0
asI92
(lp3433
F0.0
aF2.0
asI93
(lp3434
F0.0
aF1.9980879541108982
asI94
(lp3435
F0.0
aF1.9928057553956835
asI95
(lp3436
F0.0
aF1.9999999999999998
asI96
(lp3437
F0.0
aF1.9999999999999996
asI97
(lp3438
F0.0
aF1.996825396825397
asI98
(lp3439
F0.0
aF1.9999999999999996
asI99
(lp3440
F0.0
aF1.9968253968253968
assI43
(dp3441
I43
(lp3442
F2.0
aF2.0
asI44
(lp3443
F0.0
aF1.9955947136563874
asI45
(lp3444
F0.0
aF1.9999999999999998
asI46
(lp3445
F0.0
aF1.9999999999999998
asI47
(lp3446
F0.0
aF2.0000000000000004
asI48
(lp3447
F0.0
aF2.0
asI49
(lp3448
F0.0
aF1.9967845659163985
asI50
(lp3449
F0.0
aF2.0
asI51
(lp3450
F0.0
aF2.0
asI52
(lp3451
F0.0
aF1.9931034482758623
asI53
(lp3452
F0.3322314049586777
aF1.9917355371900825
asI54
(lp3453
F0.0
aF1.9999999999999998
asI55
(lp3454
F0.0
aF2.0
asI56
(lp3455
F0.0
aF1.99390243902439
asI57
(lp3456
F0.0
aF1.9999999999999998
asI58
(lp3457
F0.0
aF1.9999999999999998
asI59
(lp3458
F0.0
aF2.0
asI60
(lp3459
F0.0
aF1.9999999999999998
asI61
(lp3460
F0.0
aF2.0
asI62
(lp3461
F0.0
aF1.9999999999999998
asI63
(lp3462
F0.0
aF1.9999999999999998
asI64
(lp3463
F0.0
aF1.9999999999999998
asI65
(lp3464
F0.0
aF1.9935483870967745
asI66
(lp3465
F0.04551282051282052
aF1.9999999999999998
asI67
(lp3466
F0.0
aF1.9921259842519683
asI68
(lp3467
F0.0
aF2.0
asI69
(lp3468
F0.0
aF1.9999999999999998
asI70
(lp3469
F0.0
aF1.9999999999999996
asI71
(lp3470
F0.0
aF2.0
asI72
(lp3471
F0.0
aF2.0
asI73
(lp3472
F0.0
aF2.0
asI74
(lp3473
F0.0
aF2.0
asI75
(lp3474
F0.0
aF2.0
asI76
(lp3475
F0.0
aF2.0
asI77
(lp3476
F1.1978260869565216
aF2.0
asI78
(lp3477
F0.0
aF1.9962686567164178
asI79
(lp3478
F0.0
aF1.9999999999999998
asI80
(lp3479
F0.0
aF1.9934210526315788
asI81
(lp3480
F0.0
aF1.9999999999999996
asI82
(lp3481
F0.0
aF1.9951456310679612
asI83
(lp3482
F0.0
aF1.9999999999999998
asI84
(lp3483
F0.0
aF1.9999999999999998
asI85
(lp3484
F0.03726993865030675
aF1.9938650306748467
asI86
(lp3485
F0.0
aF1.9999999999999998
asI87
(lp3486
F0.0
aF1.9999999999999998
asI88
(lp3487
F0.0
aF2.0
asI89
(lp3488
F0.14044117647058824
aF1.9999999999999993
asI90
(lp3489
F0.0
aF1.9954128440366972
asI91
(lp3490
F0.0
aF2.0000000000000004
asI92
(lp3491
F0.0
aF1.9999999999999998
asI93
(lp3492
F0.0
aF1.9942638623326958
asI94
(lp3493
F0.0
aF1.9928057553956835
asI95
(lp3494
F0.0
aF1.9999999999999998
asI96
(lp3495
F0.0
aF1.9999999999999998
asI97
(lp3496
F0.0
aF2.0
asI98
(lp3497
F0.0
aF2.0
asI99
(lp3498
F0.0
aF2.0
assI44
(dp3499
I44
(lp3500
F1.9911894273127753
aF1.9911894273127753
asI45
(lp3501
F0.0
aF2.0
asI46
(lp3502
F1.1067686629360638
aF1.9955947136563876
asI47
(lp3503
F0.0
aF1.9955947136563876
asI48
(lp3504
F0.0
aF1.995594713656388
asI49
(lp3505
F0.0
aF1.9967845659163987
asI50
(lp3506
F0.0
aF1.9955947136563879
asI51
(lp3507
F0.0
aF1.9955947136563879
asI52
(lp3508
F1.131885158742215
aF1.9886981619322504
asI53
(lp3509
F1.1131903739032294
aF1.98733025084647
asI54
(lp3510
F0.0
aF1.9955947136563876
asI55
(lp3511
F0.0
aF1.9955947136563879
asI56
(lp3512
F0.0
aF1.9894971526807779
asI57
(lp3513
F1.1693605280072743
aF1.9955947136563879
asI58
(lp3514
F0.0
aF1.995594713656388
asI59
(lp3515
F0.0
aF1.995594713656388
asI60
(lp3516
F0.0
aF1.9955947136563879
asI61
(lp3517
F0.0
aF1.9955947136563879
asI62
(lp3518
F0.0
aF1.9955947136563876
asI63
(lp3519
F0.0
aF1.9955947136563874
asI64
(lp3520
F0.0
aF1.9999999999999998
asI65
(lp3521
F0.0
aF1.993548387096774
asI66
(lp3522
F0.0
aF1.9955947136563876
asI67
(lp3523
F0.0
aF1.9955947136563876
asI68
(lp3524
F0.8115038859639698
aF1.995594713656388
asI69
(lp3525
F0.0
aF1.9955947136563874
asI70
(lp3526
F0.0
aF1.9955947136563876
asI71
(lp3527
F0.0
aF1.9955947136563879
asI72
(lp3528
F0.0
aF1.9955947136563879
asI73
(lp3529
F0.0
aF1.9955947136563876
asI74
(lp3530
F1.281396499328606
aF1.9955947136563874
asI75
(lp3531
F0.0
aF1.9955947136563879
asI76
(lp3532
F0.0
aF1.9955947136563876
asI77
(lp3533
F0.0
aF1.9955947136563874
asI78
(lp3534
F0.0
aF1.9918633703728055
asI79
(lp3535
F0.0
aF1.9955947136563876
asI80
(lp3536
F0.0
aF1.9955947136563876
asI81
(lp3537
F0.0
aF1.9955947136563874
asI82
(lp3538
F0.0
aF1.990740344724349
asI83
(lp3539
F0.0
aF1.9955947136563876
asI84
(lp3540
F0.0
aF2.0
asI85
(lp3541
F0.0
aF1.9894597443312343
asI86
(lp3542
F0.0
aF1.9955947136563879
asI87
(lp3543
F1.0906286356684403
aF1.995594713656388
asI88
(lp3544
F0.0
aF1.9906442186068827
asI89
(lp3545
F0.0
aF1.9955947136563876
asI90
(lp3546
F0.0
aF1.9955947136563874
asI91
(lp3547
F0.0
aF1.9955947136563876
asI92
(lp3548
F0.0
aF1.9955947136563876
asI93
(lp3549
F1.4709023677361208
aF1.9936826677672865
asI94
(lp3550
F0.0
aF1.988400469052071
asI95
(lp3551
F0.0
aF1.9955947136563874
asI96
(lp3552
F0.0
aF2.0
asI97
(lp3553
F0.0
aF1.9955947136563879
asI98
(lp3554
F0.0
aF1.9955947136563879
asI99
(lp3555
F0.0
aF1.9955947136563876
assI45
(dp3556
I45
(lp3557
F1.9999999999999998
aF1.9999999999999998
asI46
(lp3558
F0.0890729439116536
aF2.0
asI47
(lp3559
F1.1325733039685624
aF2.0
asI48
(lp3560
F0.0
aF2.0000000000000004
asI49
(lp3561
F0.0
aF2.0000000000000004
asI50
(lp3562
F0.0
aF2.0
asI51
(lp3563
F0.0
aF2.0
asI52
(lp3564
F0.0
aF2.0000000000000004
asI53
(lp3565
F0.0
aF1.9999999999999998
asI54
(lp3566
F0.0
aF1.9999999999999998
asI55
(lp3567
F0.0
aF2.0
asI56
(lp3568
F0.0
aF1.9969512195121952
asI57
(lp3569
F1.0964553119299991
aF2.0
asI58
(lp3570
F0.0
aF2.0
asI59
(lp3571
F0.0
aF2.0
asI60
(lp3572
F0.0
aF2.0
asI61
(lp3573
F0.0
aF2.0000000000000004
asI62
(lp3574
F0.0
aF2.0
asI63
(lp3575
F0.0
aF2.0000000000000004
asI64
(lp3576
F0.0
aF1.9999999999999998
asI65
(lp3577
F0.0
aF1.9935483870967743
asI66
(lp3578
F0.0
aF1.9999999999999998
asI67
(lp3579
F0.0
aF2.0
asI68
(lp3580
F0.0
aF2.0000000000000004
asI69
(lp3581
F0.0
aF1.9999999999999998
asI70
(lp3582
F1.3853735869864903
aF2.0
asI71
(lp3583
F0.07871736598713296
aF2.0
asI72
(lp3584
F0.0
aF2.0
asI73
(lp3585
F0.0
aF1.9999999999999998
asI74
(lp3586
F0.0
aF2.0
asI75
(lp3587
F0.0
aF1.9951219512195122
asI76
(lp3588
F0.0
aF2.0
asI77
(lp3589
F1.1497974131213962
aF1.9999999999999998
asI78
(lp3590
F0.0
aF1.9925373134328357
asI79
(lp3591
F0.0
aF1.9999999999999998
asI80
(lp3592
F0.0
aF2.0
asI81
(lp3593
F0.0
aF2.0
asI82
(lp3594
F0.0
aF2.0
asI83
(lp3595
F0.0
aF2.0
asI84
(lp3596
F0.0
aF1.9999999999999996
asI85
(lp3597
F0.0
aF2.0
asI86
(lp3598
F0.0
aF1.9999999999999998
asI87
(lp3599
F0.0
aF2.0000000000000004
asI88
(lp3600
F0.0
aF1.9999999999999998
asI89
(lp3601
F0.0
aF2.0
asI90
(lp3602
F0.0
aF1.995412844036697
asI91
(lp3603
F0.0
aF2.0000000000000004
asI92
(lp3604
F0.0
aF2.0000000000000004
asI93
(lp3605
F0.0
aF1.9961759082217978
asI94
(lp3606
F0.0
aF2.0
asI95
(lp3607
F0.0
aF2.0
asI96
(lp3608
F0.0
aF2.0
asI97
(lp3609
F0.0
aF2.0
asI98
(lp3610
F0.0
aF2.0
asI99
(lp3611
F0.0
aF1.9999999999999998
assI46
(dp3612
I46
(lp3613
F2.0
aF2.0
asI47
(lp3614
F0.0
aF2.0
asI48
(lp3615
F0.0
aF2.0000000000000004
asI49
(lp3616
F0.0
aF1.9967845659163987
asI50
(lp3617
F0.0
aF2.0
asI51
(lp3618
F0.0
aF2.0
asI52
(lp3619
F0.0
aF2.0
asI53
(lp3620
F0.0
aF2.0
asI54
(lp3621
F0.0
aF2.0
asI55
(lp3622
F0.0
aF2.0
asI56
(lp3623
F0.0
aF1.9969512195121952
asI57
(lp3624
F1.1664662883524093
aF1.9999999999999998
asI58
(lp3625
F0.0
aF1.9999999999999998
asI59
(lp3626
F0.0
aF2.0
asI60
(lp3627
F0.0
aF2.0
asI61
(lp3628
F0.0
aF2.0
asI62
(lp3629
F0.0
aF2.0
asI63
(lp3630
F0.0
aF2.0
asI64
(lp3631
F0.0
aF2.0
asI65
(lp3632
F0.0
aF1.9935483870967743
asI66
(lp3633
F0.0
aF1.9999999999999996
asI67
(lp3634
F0.0
aF1.9921259842519683
asI68
(lp3635
F0.0
aF2.0
asI69
(lp3636
F0.0
aF1.9999999999999998
asI70
(lp3637
F0.0
aF2.0
asI71
(lp3638
F0.0
aF2.0
asI72
(lp3639
F0.0
aF2.0
asI73
(lp3640
F0.0
aF2.0
asI74
(lp3641
F0.0
aF2.0
asI75
(lp3642
F0.0
aF2.0
asI76
(lp3643
F0.0
aF2.0
asI77
(lp3644
F0.0
aF2.0
asI78
(lp3645
F0.0
aF1.9925373134328357
asI79
(lp3646
F0.0
aF1.9999999999999998
asI80
(lp3647
F0.0
aF2.0
asI81
(lp3648
F0.0
aF1.996031746031746
asI82
(lp3649
F0.0
aF1.9951456310679614
asI83
(lp3650
F0.0
aF2.0
asI84
(lp3651
F0.0
aF2.0
asI85
(lp3652
F0.0
aF1.9938650306748464
asI86
(lp3653
F0.07364864864864865
aF2.0
asI87
(lp3654
F0.0
aF2.0000000000000004
asI88
(lp3655
F0.0
aF2.0
asI89
(lp3656
F0.0
aF2.0
asI90
(lp3657
F0.0
aF1.9954128440366972
asI91
(lp3658
F0.0
aF2.0000000000000004
asI92
(lp3659
F0.0
aF1.9999999999999998
asI93
(lp3660
F0.0
aF1.9961759082217976
asI94
(lp3661
F1.0940598872253549
aF1.9999999999999996
asI95
(lp3662
F0.0
aF1.9999999999999998
asI96
(lp3663
F0.0
aF1.9999999999999996
asI97
(lp3664
F0.0
aF2.0
asI98
(lp3665
F0.0
aF2.0
asI99
(lp3666
F0.0
aF2.0
assI47
(dp3667
I47
(lp3668
F1.9759036144578312
aF2.0
asI48
(lp3669
F0.0
aF2.0
asI49
(lp3670
F0.0
aF1.9967845659163987
asI50
(lp3671
F0.0
aF2.0
asI51
(lp3672
F0.0
aF2.0
asI52
(lp3673
F0.0
aF2.0
asI53
(lp3674
F0.0
aF2.0
asI54
(lp3675
F0.0
aF2.0
asI55
(lp3676
F0.0
aF2.0
asI56
(lp3677
F0.0
aF1.996951219512195
asI57
(lp3678
F0.0
aF1.99644128113879
asI58
(lp3679
F0.0
aF2.0
asI59
(lp3680
F0.0
aF1.9999999999999998
asI60
(lp3681
F0.0
aF2.0
asI61
(lp3682
F0.0
aF2.0000000000000004
asI62
(lp3683
F0.0
aF1.9999999999999998
asI63
(lp3684
F0.0
aF2.0000000000000004
asI64
(lp3685
F0.9638163041777499
aF2.0
asI65
(lp3686
F0.0
aF1.9935483870967743
asI66
(lp3687
F0.0
aF1.9999999999999996
asI67
(lp3688
F0.0
aF1.9999999999999998
asI68
(lp3689
F0.0
aF2.0000000000000004
asI69
(lp3690
F0.0
aF1.9999999999999998
asI70
(lp3691
F0.0
aF1.9999999999999998
asI71
(lp3692
F0.0
aF1.9999999999999998
asI72
(lp3693
F0.0
aF2.0
asI73
(lp3694
F0.0
aF1.9999999999999998
asI74
(lp3695
F0.0
aF1.9999999999999996
asI75
(lp3696
F0.0
aF1.9951219512195124
asI76
(lp3697
F0.0
aF1.9999999999999998
asI77
(lp3698
F0.0
aF1.9999999999999998
asI78
(lp3699
F0.0
aF1.992537313432836
asI79
(lp3700
F0.0
aF1.9999999999999993
asI80
(lp3701
F0.0
aF1.9999999999999998
asI81
(lp3702
F0.0
aF1.9999999999999996
asI82
(lp3703
F0.0
aF1.9951456310679612
asI83
(lp3704
F0.0
aF2.0
asI84
(lp3705
F0.0
aF1.9999999999999998
asI85
(lp3706
F0.0
aF1.9938650306748467
asI86
(lp3707
F0.0
aF1.9999999999999996
asI87
(lp3708
F0.0
aF1.9999999999999998
asI88
(lp3709
F0.0
aF2.0
asI89
(lp3710
F0.0
aF2.0
asI90
(lp3711
F0.0
aF1.9954128440366974
asI91
(lp3712
F0.0
aF2.0
asI92
(lp3713
F0.0
aF2.0
asI93
(lp3714
F0.0
aF1.9961759082217974
asI94
(lp3715
F0.0
aF2.0
asI95
(lp3716
F0.0
aF1.9999999999999996
asI96
(lp3717
F0.0
aF1.9999999999999993
asI97
(lp3718
F0.0
aF2.0000000000000004
asI98
(lp3719
F0.0
aF2.0
asI99
(lp3720
F0.0
aF2.0
assI48
(dp3721
I48
(lp3722
F2.0000000000000004
aF2.0000000000000004
asI49
(lp3723
F0.0
aF2.0000000000000004
asI50
(lp3724
F0.0
aF2.0000000000000004
asI51
(lp3725
F0.0
aF2.0
asI52
(lp3726
F0.0
aF1.9931034482758625
asI53
(lp3727
F0.0
aF2.0
asI54
(lp3728
F0.0
aF2.0000000000000004
asI55
(lp3729
F0.0
aF1.9999999999999996
asI56
(lp3730
F1.142381553125876
aF1.9999999999999998
asI57
(lp3731
F0.0
aF2.0
asI58
(lp3732
F0.0
aF2.0
asI59
(lp3733
F0.0
aF2.0000000000000004
asI60
(lp3734
F0.0
aF1.9999999999999998
asI61
(lp3735
F0.0
aF2.0
asI62
(lp3736
F0.0
aF2.0
asI63
(lp3737
F0.0
aF2.0
asI64
(lp3738
F0.0
aF2.0
asI65
(lp3739
F0.0
aF1.9999999999999998
asI66
(lp3740
F0.0
aF1.9999999999999998
asI67
(lp3741
F0.0
aF2.0
asI68
(lp3742
F0.0
aF2.0000000000000004
asI69
(lp3743
F0.0
aF2.0
asI70
(lp3744
F0.0
aF2.0000000000000004
asI71
(lp3745
F0.0
aF2.0
asI72
(lp3746
F0.0
aF2.0
asI73
(lp3747
F0.0
aF2.0
asI74
(lp3748
F0.0
aF2.0
asI75
(lp3749
F0.0
aF2.0
asI76
(lp3750
F0.0
aF2.0
asI77
(lp3751
F0.0
aF1.9999999999999998
asI78
(lp3752
F0.0
aF1.996268656716418
asI79
(lp3753
F0.0
aF2.0
asI80
(lp3754
F0.0
aF2.0
asI81
(lp3755
F0.0
aF1.9999999999999998
asI82
(lp3756
F0.0
aF2.0000000000000004
asI83
(lp3757
F1.2278457545420838
aF2.0
asI84
(lp3758
F0.0
aF2.0
asI85
(lp3759
F0.0
aF1.9938650306748469
asI86
(lp3760
F0.0
aF2.0
asI87
(lp3761
F1.1460997987653059
aF2.0000000000000004
asI88
(lp3762
F0.0
aF2.0
asI89
(lp3763
F0.0
aF2.0
asI90
(lp3764
F0.0
aF2.0
asI91
(lp3765
F0.0
aF2.0000000000000004
asI92
(lp3766
F0.0
aF2.0
asI93
(lp3767
F0.0
aF1.9961759082217978
asI94
(lp3768
F0.0
aF1.9999999999999998
asI95
(lp3769
F0.0
aF2.0
asI96
(lp3770
F0.0
aF2.0
asI97
(lp3771
F0.0
aF2.0
asI98
(lp3772
F0.0
aF2.0
asI99
(lp3773
F0.030911728601718556
aF2.0000000000000004
assI49
(dp3774
I49
(lp3775
F1.993569131832798
aF1.993569131832798
asI50
(lp3776
F0.0
aF2.0
asI51
(lp3777
F0.0
aF2.0
asI52
(lp3778
F0.0
aF1.9967845659163987
asI53
(lp3779
F0.0
aF2.0000000000000004
asI54
(lp3780
F0.0
aF2.0000000000000004
asI55
(lp3781
F0.0
aF2.0
asI56
(lp3782
F0.0
aF1.9969512195121955
asI57
(lp3783
F0.0
aF2.0000000000000004
asI58
(lp3784
F0.0
aF1.996784565916399
asI59
(lp3785
F0.0
aF2.0
asI60
(lp3786
F0.0
aF2.0
asI61
(lp3787
F0.0
aF1.9967845659163987
asI62
(lp3788
F0.0
aF1.9967845659163987
asI63
(lp3789
F0.0
aF2.0
asI64
(lp3790
F0.0
aF1.9967845659163987
asI65
(lp3791
F0.0
aF2.0000000000000004
asI66
(lp3792
F0.0
aF1.9999999999999998
asI67
(lp3793
F0.0
aF2.0
asI68
(lp3794
F0.0
aF1.9999999999999996
asI69
(lp3795
F0.0
aF1.9967845659163987
asI70
(lp3796
F0.0
aF2.0
asI71
(lp3797
F0.0
aF2.0
asI72
(lp3798
F0.0
aF1.996784565916399
asI73
(lp3799
F0.0
aF1.9999999999999998
asI74
(lp3800
F0.0
aF1.9935691318327975
asI75
(lp3801
F0.0
aF2.0
asI76
(lp3802
F0.0
aF1.9999999999999998
asI77
(lp3803
F0.0
aF2.0
asI78
(lp3804
F0.0
aF1.9930532226328168
asI79
(lp3805
F0.0
aF1.9967845659163987
asI80
(lp3806
F0.0
aF2.0
asI81
(lp3807
F0.0
aF2.0
asI82
(lp3808
F1.065729091874005
aF1.996784565916398
asI83
(lp3809
F1.2077585312726895
aF1.9999999999999998
asI84
(lp3810
F0.0
aF1.9967845659163987
asI85
(lp3811
F0.0
aF1.9938650306748469
asI86
(lp3812
F0.0
aF1.996784565916399
asI87
(lp3813
F0.0
aF2.0000000000000004
asI88
(lp3814
F1.2532711470503966
aF2.0000000000000004
asI89
(lp3815
F0.0
aF2.0000000000000004
asI90
(lp3816
F0.0
aF1.9954128440366974
asI91
(lp3817
F0.0
aF1.996784565916399
asI92
(lp3818
F0.0
aF2.0
asI93
(lp3819
F0.0
aF1.9980879541108982
asI94
(lp3820
F0.0
aF1.9895903213120822
asI95
(lp3821
F0.0
aF2.0000000000000004
asI96
(lp3822
F0.0
aF2.0000000000000004
asI97
(lp3823
F1.2001583577146278
aF2.0
asI98
(lp3824
F0.0
aF1.9999999999999996
asI99
(lp3825
F0.0
aF1.9967845659163987
assI50
(dp3826
I50
(lp3827
F2.0
aF2.0
asI51
(lp3828
F0.0
aF1.9999999999999998
asI52
(lp3829
F0.0
aF1.993103448275862
asI53
(lp3830
F0.0
aF2.0000000000000004
asI54
(lp3831
F0.0
aF2.0
asI55
(lp3832
F0.0
aF2.0
asI56
(lp3833
F0.0
aF1.99390243902439
asI57
(lp3834
F0.0
aF2.0
asI58
(lp3835
F0.0
aF1.9999999999999998
asI59
(lp3836
F0.0
aF2.0
asI60
(lp3837
F0.0
aF1.9894736842105265
asI61
(lp3838
F0.44003073376872837
aF2.0
asI62
(lp3839
F0.0
aF2.0
asI63
(lp3840
F0.0
aF2.0
asI64
(lp3841
F0.0
aF2.0
asI65
(lp3842
F0.0
aF2.0
asI66
(lp3843
F0.0
aF1.9999999999999996
asI67
(lp3844
F0.0
aF1.9921259842519683
asI68
(lp3845
F0.0
aF2.0
asI69
(lp3846
F0.0
aF1.9999999999999996
asI70
(lp3847
F0.0
aF1.9999999999999998
asI71
(lp3848
F0.0
aF2.0
asI72
(lp3849
F1.1377094421446876
aF2.0
asI73
(lp3850
F0.0
aF1.9999999999999996
asI74
(lp3851
F0.0
aF2.0
asI75
(lp3852
F0.0
aF2.0
asI76
(lp3853
F0.0
aF2.0
asI77
(lp3854
F0.0
aF2.0
asI78
(lp3855
F0.44493322859387274
aF1.992537313432836
asI79
(lp3856
F0.0
aF2.0
asI80
(lp3857
F0.0
aF1.993421052631579
asI81
(lp3858
F0.0
aF1.9999999999999998
asI82
(lp3859
F0.0
aF2.0
asI83
(lp3860
F0.0
aF1.9999999999999998
asI84
(lp3861
F0.0
aF1.9999999999999996
asI85
(lp3862
F0.0
aF1.9999999999999998
asI86
(lp3863
F0.0
aF1.9999999999999998
asI87
(lp3864
F0.0
aF1.9999999999999998
asI88
(lp3865
F0.0
aF2.0
asI89
(lp3866
F0.0
aF1.9999999999999998
asI90
(lp3867
F0.0
aF1.9999999999999998
asI91
(lp3868
F0.0
aF2.0000000000000004
asI92
(lp3869
F0.0
aF2.0
asI93
(lp3870
F0.0
aF1.9980879541108985
asI94
(lp3871
F0.0
aF1.9928057553956835
asI95
(lp3872
F0.0
aF1.9999999999999998
asI96
(lp3873
F0.0
aF2.0
asI97
(lp3874
F0.0
aF2.0
asI98
(lp3875
F0.0
aF2.0
asI99
(lp3876
F0.0
aF2.0
assI51
(dp3877
I51
(lp3878
F2.0
aF2.0
asI52
(lp3879
F0.0
aF2.0
asI53
(lp3880
F0.0
aF1.9999999999999998
asI54
(lp3881
F0.0
aF1.9999999999999998
asI55
(lp3882
F1.3789034132171385
aF1.9999999999999998
asI56
(lp3883
F0.0
aF1.9999999999999996
asI57
(lp3884
F0.0
aF2.0
asI58
(lp3885
F0.0
aF1.9999999999999996
asI59
(lp3886
F1.2465711673270343
aF1.9999999999999998
asI60
(lp3887
F0.0
aF2.0
asI61
(lp3888
F0.0
aF2.0
asI62
(lp3889
F0.0
aF1.9999999999999998
asI63
(lp3890
F0.0
aF1.9999999999999998
asI64
(lp3891
F0.0
aF2.0000000000000004
asI65
(lp3892
F0.0
aF1.9935483870967743
asI66
(lp3893
F0.0
aF1.9999999999999996
asI67
(lp3894
F0.0
aF1.9999999999999996
asI68
(lp3895
F0.0
aF1.9918699186991868
asI69
(lp3896
F0.0
aF1.9999999999999993
asI70
(lp3897
F0.0
aF1.9999999999999998
asI71
(lp3898
F0.0
aF2.0
asI72
(lp3899
F0.0
aF2.0
asI73
(lp3900
F0.0
aF2.0
asI74
(lp3901
F0.0
aF2.0
asI75
(lp3902
F0.0
aF2.0
asI76
(lp3903
F0.0
aF1.9999999999999998
asI77
(lp3904
F0.0
aF2.0
asI78
(lp3905
F0.0
aF1.9925373134328357
asI79
(lp3906
F0.0
aF2.0
asI80
(lp3907
F0.0
aF1.9934210526315785
asI81
(lp3908
F1.3718487394957983
aF1.9999999999999996
asI82
(lp3909
F1.2355796687607081
aF1.995145631067961
asI83
(lp3910
F1.3776091081593926
aF1.9999999999999998
asI84
(lp3911
F0.0
aF1.9893617021276588
asI85
(lp3912
F0.0
aF1.9938650306748467
asI86
(lp3913
F0.0
aF1.9999999999999996
asI87
(lp3914
F0.0
aF1.9999999999999998
asI88
(lp3915
F0.0
aF2.0
asI89
(lp3916
F0.0
aF1.9999999999999998
asI90
(lp3917
F0.0
aF1.9954128440366974
asI91
(lp3918
F0.0
aF2.0000000000000004
asI92
(lp3919
F0.0
aF1.9999999999999996
asI93
(lp3920
F0.0
aF1.9980879541108982
asI94
(lp3921
F0.0
aF1.9928057553956833
asI95
(lp3922
F0.0
aF1.9999999999999998
asI96
(lp3923
F0.0
aF1.9999999999999996
asI97
(lp3924
F0.0
aF2.0
asI98
(lp3925
F0.0
aF1.9999999999999996
asI99
(lp3926
F0.0
aF2.0
assI52
(dp3927
I52
(lp3928
F1.9724137931034482
aF1.9724137931034482
asI53
(lp3929
F0.0
aF1.9931034482758623
asI54
(lp3930
F0.0
aF2.0000000000000004
asI55
(lp3931
F0.0
aF2.0
asI56
(lp3932
F0.0
aF1.996951219512195
asI57
(lp3933
F0.0
aF2.0000000000000004
asI58
(lp3934
F1.111544227886057
aF1.993103448275862
asI59
(lp3935
F0.0
aF2.0
asI60
(lp3936
F0.0
aF2.0
asI61
(lp3937
F0.0
aF2.0
asI62
(lp3938
F0.0
aF1.9999999999999998
asI63
(lp3939
F0.0
aF2.0
asI64
(lp3940
F0.0
aF1.9999999999999998
asI65
(lp3941
F0.0
aF1.9935483870967743
asI66
(lp3942
F0.0
aF1.9999999999999998
asI67
(lp3943
F0.0
aF1.9931034482758623
asI68
(lp3944
F0.0
aF2.0000000000000004
asI69
(lp3945
F0.0
aF1.993103448275862
asI70
(lp3946
F0.0
aF1.9999999999999998
asI71
(lp3947
F0.0
aF1.996845425867508
asI72
(lp3948
F0.0
aF1.993103448275862
asI73
(lp3949
F0.0
aF1.9999999999999998
asI74
(lp3950
F0.0
aF2.0
asI75
(lp3951
F0.0
aF1.9951219512195126
asI76
(lp3952
F0.0
aF1.993103448275862
asI77
(lp3953
F0.0
aF2.0000000000000004
asI78
(lp3954
F0.0
aF1.9925373134328357
asI79
(lp3955
F0.0
aF2.0
asI80
(lp3956
F1.2171506352087116
aF2.0
asI81
(lp3957
F0.0
aF1.996031746031746
asI82
(lp3958
F0.0
aF1.9951456310679614
asI83
(lp3959
F0.0
aF2.0
asI84
(lp3960
F0.0
aF1.9824651504035216
asI85
(lp3961
F0.0
aF1.9938650306748467
asI86
(lp3962
F0.0
aF2.0
asI87
(lp3963
F0.0
aF2.0
asI88
(lp3964
F0.0
aF2.0000000000000004
asI89
(lp3965
F0.0
aF2.0
asI90
(lp3966
F0.0
aF1.9885162923125594
asI91
(lp3967
F0.0
aF2.0000000000000004
asI92
(lp3968
F0.0
aF1.9999999999999998
asI93
(lp3969
F0.0
aF1.9961759082217971
asI94
(lp3970
F0.0
aF1.9928057553956837
asI95
(lp3971
F0.0
aF2.0
asI96
(lp3972
F0.0
aF1.993103448275862
asI97
(lp3973
F0.0
aF1.996996996996997
asI98
(lp3974
F0.0
aF1.992248062015504
asI99
(lp3975
F0.0
aF1.9931034482758625
assI53
(dp3976
I53
(lp3977
F1.983471074380165
aF1.983471074380165
asI54
(lp3978
F0.0
aF2.0
asI55
(lp3979
F0.0
aF1.9999999999999998
asI56
(lp3980
F0.0
aF1.996951219512195
asI57
(lp3981
F0.0
aF2.0
asI58
(lp3982
F0.0
aF1.9999999999999998
asI59
(lp3983
F0.0
aF2.0
asI60
(lp3984
F0.0
aF1.9999999999999998
asI61
(lp3985
F0.0
aF2.0
asI62
(lp3986
F0.0
aF2.0
asI63
(lp3987
F0.0
aF1.9999999999999998
asI64
(lp3988
F0.0
aF1.9999999999999993
asI65
(lp3989
F0.0
aF1.993548387096774
asI66
(lp3990
F0.0
aF1.9999999999999998
asI67
(lp3991
F0.0
aF1.9921259842519685
asI68
(lp3992
F0.0
aF2.0000000000000004
asI69
(lp3993
F1.1231634527089072
aF1.9999999999999996
asI70
(lp3994
F0.0
aF1.9999999999999998
asI71
(lp3995
F0.0
aF1.9999999999999998
asI72
(lp3996
F0.0
aF2.0
asI73
(lp3997
F0.0
aF2.0
asI74
(lp3998
F0.0
aF2.0000000000000004
asI75
(lp3999
F0.0
aF1.986857488409595
asI76
(lp4000
F0.0
aF1.9999999999999998
asI77
(lp4001
F0.0
aF1.9999999999999998
asI78
(lp4002
F0.0
aF1.9925373134328355
asI79
(lp4003
F0.0
aF1.9999999999999998
asI80
(lp4004
F0.0
aF1.9999999999999998
asI81
(lp4005
F0.0
aF1.9999999999999998
asI82
(lp4006
F0.0
aF1.9999999999999996
asI83
(lp4007
F0.0
aF1.9999999999999998
asI84
(lp4008
F0.0
aF1.9999999999999998
asI85
(lp4009
F0.0
aF1.9938650306748464
asI86
(lp4010
F0.0
aF2.0
asI87
(lp4011
F0.0
aF1.9999999999999998
asI88
(lp4012
F0.0
aF2.0
asI89
(lp4013
F0.0
aF1.9999999999999998
asI90
(lp4014
F0.0
aF1.9788839184168623
asI91
(lp4015
F0.0
aF2.0
asI92
(lp4016
F0.0
aF2.0
asI93
(lp4017
F0.0
aF1.9980879541108982
asI94
(lp4018
F0.0
aF1.9928057553956837
asI95
(lp4019
F0.0
aF2.0
asI96
(lp4020
F0.0
aF1.9917355371900822
asI97
(lp4021
F0.0
aF2.0000000000000004
asI98
(lp4022
F0.0
aF1.9999999999999998
asI99
(lp4023
F0.0
aF1.9999999999999998
assI54
(dp4024
I54
(lp4025
F1.9999999999999996
aF1.9999999999999996
asI55
(lp4026
F0.0
aF2.0
asI56
(lp4027
F0.0
aF1.9969512195121955
asI57
(lp4028
F0.0
aF2.0
asI58
(lp4029
F0.0
aF1.9999999999999998
asI59
(lp4030
F0.0
aF2.0
asI60
(lp4031
F0.0
aF2.0
asI61
(lp4032
F0.0
aF2.0
asI62
(lp4033
F0.0
aF1.9999999999999998
asI63
(lp4034
F1.0033655067310134
aF1.9999999999999998
asI64
(lp4035
F0.0
aF2.0
asI65
(lp4036
F0.0
aF1.993548387096774
asI66
(lp4037
F0.0
aF1.9999999999999998
asI67
(lp4038
F0.0
aF1.9999999999999996
asI68
(lp4039
F0.0
aF2.0
asI69
(lp4040
F0.0
aF2.0
asI70
(lp4041
F0.0
aF1.9999999999999998
asI71
(lp4042
F0.0
aF1.9999999999999998
asI72
(lp4043
F0.0
aF2.0
asI73
(lp4044
F0.0
aF1.9999999999999998
asI74
(lp4045
F0.026824219423839918
aF2.0000000000000004
asI75
(lp4046
F0.0
aF2.0
asI76
(lp4047
F0.0
aF1.9808917197452227
asI77
(lp4048
F0.0
aF2.0
asI78
(lp4049
F0.0
aF1.9962686567164178
asI79
(lp4050
F0.0
aF2.0
asI80
(lp4051
F0.0
aF1.9934210526315785
asI81
(lp4052
F0.0
aF1.9999999999999996
asI82
(lp4053
F0.0
aF1.9999999999999998
asI83
(lp4054
F0.0
aF2.0
asI84
(lp4055
F0.0
aF1.9893617021276595
asI85
(lp4056
F0.0
aF1.9938650306748462
asI86
(lp4057
F0.0
aF1.9999999999999998
asI87
(lp4058
F0.0
aF1.9999999999999998
asI88
(lp4059
F0.0
aF2.0
asI89
(lp4060
F0.0
aF1.9999999999999996
asI90
(lp4061
F0.0
aF2.0
asI91
(lp4062
F0.0
aF2.0
asI92
(lp4063
F0.0
aF2.0
asI93
(lp4064
F0.0
aF1.9980879541108982
asI94
(lp4065
F0.0
aF1.9928057553956835
asI95
(lp4066
F0.0
aF1.9999999999999996
asI96
(lp4067
F0.0
aF1.9999999999999998
asI97
(lp4068
F0.0
aF2.0000000000000004
asI98
(lp4069
F0.0
aF2.0
asI99
(lp4070
F0.0
aF1.9999999999999996
assI55
(dp4071
I55
(lp4072
F2.0
aF2.0
asI56
(lp4073
F1.1416365552544414
aF1.996951219512195
asI57
(lp4074
F0.0
aF2.0
asI58
(lp4075
F0.0
aF2.0
asI59
(lp4076
F0.0
aF2.0
asI60
(lp4077
F0.0
aF2.0
asI61
(lp4078
F0.0
aF2.0
asI62
(lp4079
F0.0
aF2.0
asI63
(lp4080
F1.1417565859823076
aF2.0
asI64
(lp4081
F0.0
aF2.0
asI65
(lp4082
F0.0
aF1.9935483870967743
asI66
(lp4083
F0.0
aF2.0
asI67
(lp4084
F0.0
aF2.0
asI68
(lp4085
F0.0
aF2.0000000000000004
asI69
(lp4086
F0.0
aF2.0000000000000004
asI70
(lp4087
F0.0
aF2.0
asI71
(lp4088
F0.0
aF1.996845425867508
asI72
(lp4089
F0.0
aF2.0
asI73
(lp4090
F0.0
aF2.0
asI74
(lp4091
F1.3361226645540372
aF2.0
asI75
(lp4092
F0.0
aF2.0
asI76
(lp4093
F0.0
aF2.0000000000000004
asI77
(lp4094
F0.0
aF1.9999999999999998
asI78
(lp4095
F0.0
aF1.996268656716418
asI79
(lp4096
F0.0
aF2.0
asI80
(lp4097
F0.0
aF2.0
asI81
(lp4098
F0.0
aF2.0
asI82
(lp4099
F1.0850713172719644
aF1.9951456310679612
asI83
(lp4100
F0.0
aF2.0
asI84
(lp4101
F0.0
aF2.0
asI85
(lp4102
F0.0
aF1.9938650306748467
asI86
(lp4103
F0.0
aF2.0
asI87
(lp4104
F0.0
aF1.9999999999999998
asI88
(lp4105
F0.0
aF2.0
asI89
(lp4106
F0.0
aF2.0
asI90
(lp4107
F0.0
aF1.9954128440366976
asI91
(lp4108
F0.0
aF2.0
asI92
(lp4109
F0.0
aF2.0
asI93
(lp4110
F0.0
aF1.9961759082217976
asI94
(lp4111
F0.0
aF1.9928057553956835
asI95
(lp4112
F0.0
aF1.9999999999999998
asI96
(lp4113
F0.0
aF2.0
asI97
(lp4114
F0.0
aF2.0
asI98
(lp4115
F0.0
aF2.0
asI99
(lp4116
F0.0
aF2.0
assI56
(dp4117
I56
(lp4118
F1.987804878048781
aF1.987804878048781
asI57
(lp4119
F1.0719230101553685
aF1.996951219512195
asI58
(lp4120
F0.10400318133616118
aF1.996951219512195
asI59
(lp4121
F0.0
aF1.9969512195121955
asI60
(lp4122
F0.0
aF1.9969512195121955
asI61
(lp4123
F0.0
aF1.996951219512195
asI62
(lp4124
F0.0
aF1.9969512195121948
asI63
(lp4125
F0.0
aF1.9999999999999998
asI64
(lp4126
F0.0
aF1.9999999999999998
asI65
(lp4127
F0.0
aF2.0000000000000004
asI66
(lp4128
F0.0
aF2.0
asI67
(lp4129
F0.0
aF1.9890772037641635
asI68
(lp4130
F0.0
aF1.9969512195121952
asI69
(lp4131
F1.0968834688346885
aF1.9969512195121948
asI70
(lp4132
F1.050515947467167
aF1.9969512195121952
asI71
(lp4133
F1.1457355543586982
aF1.9969512195121955
asI72
(lp4134
F0.19825066228190372
aF2.0
asI73
(lp4135
F0.19983370288248337
aF1.996951219512195
asI74
(lp4136
F0.0
aF2.0
asI75
(lp4137
F0.0
aF1.9969512195121952
asI76
(lp4138
F0.0
aF2.0
asI77
(lp4139
F0.0
aF2.0
asI78
(lp4140
F0.0
aF1.9962686567164178
asI79
(lp4141
F0.0
aF1.996951219512195
asI80
(lp4142
F0.0
aF1.9903722721437735
asI81
(lp4143
F0.13850174216027875
aF1.996951219512195
asI82
(lp4144
F0.0
aF1.9920968505801564
asI83
(lp4145
F0.0
aF1.9969512195121952
asI84
(lp4146
F0.0
aF2.0
asI85
(lp4147
F0.0
aF1.9908162501870421
asI86
(lp4148
F0.0
aF1.9969512195121948
asI87
(lp4149
F1.0585962944199174
aF1.9969512195121952
asI88
(lp4150
F0.0
aF1.9969512195121952
asI89
(lp4151
F0.0
aF1.996951219512195
asI90
(lp4152
F0.0
aF1.9923640635488922
asI91
(lp4153
F0.0
aF1.9969512195121955
asI92
(lp4154
F0.0
aF2.0
asI93
(lp4155
F0.0
aF1.9931271277339926
asI94
(lp4156
F0.0
aF1.989756974907879
asI95
(lp4157
F0.0
aF1.9999999999999998
asI96
(lp4158
F0.0
aF1.9999999999999998
asI97
(lp4159
F0.0
aF1.9969512195121948
asI98
(lp4160
F0.0
aF1.9969512195121952
asI99
(lp4161
F0.0
aF1.9969512195121952
assI57
(dp4162
I57
(lp4163
F1.9999999999999998
aF1.9999999999999998
asI58
(lp4164
F0.0
aF2.0
asI59
(lp4165
F0.0
aF1.9964412811387904
asI60
(lp4166
F0.0
aF1.9999999999999998
asI61
(lp4167
F1.1357248616775335
aF2.0
asI62
(lp4168
F0.0
aF1.9999999999999998
asI63
(lp4169
F0.0
aF2.0
asI64
(lp4170
F0.0
aF1.99644128113879
asI65
(lp4171
F0.0
aF1.993548387096774
asI66
(lp4172
F0.0
aF1.9964412811387895
asI67
(lp4173
F0.0
aF1.9964412811387897
asI68
(lp4174
F0.0
aF2.0
asI69
(lp4175
F0.0
aF1.99644128113879
asI70
(lp4176
F0.0
aF1.9999999999999996
asI71
(lp4177
F0.0
aF2.0
asI72
(lp4178
F1.1137723752782331
aF2.0
asI73
(lp4179
F0.0
aF2.0
asI74
(lp4180
F0.0
aF2.0
asI75
(lp4181
F0.0
aF2.0
asI76
(lp4182
F0.2146791486275132
aF1.99644128113879
asI77
(lp4183
F0.0
aF1.994565217391304
asI78
(lp4184
F0.0
aF1.996268656716418
asI79
(lp4185
F1.0067196353119523
aF2.0
asI80
(lp4186
F0.0
aF2.0
asI81
(lp4187
F0.0
aF1.9964412811387897
asI82
(lp4188
F0.0
aF2.0
asI83
(lp4189
F0.0
aF2.0
asI84
(lp4190
F0.0
aF1.99644128113879
asI85
(lp4191
F0.0
aF1.9938650306748467
asI86
(lp4192
F0.0
aF1.9999999999999998
asI87
(lp4193
F0.0
aF1.99644128113879
asI88
(lp4194
F0.0
aF2.0
asI89
(lp4195
F0.0
aF1.9999999999999998
asI90
(lp4196
F0.0
aF1.995412844036697
asI91
(lp4197
F1.1444839857651246
aF1.9964412811387902
asI92
(lp4198
F0.0
aF1.99644128113879
asI93
(lp4199
F0.0
aF1.9945292352496886
asI94
(lp4200
F0.0
aF1.9928057553956835
asI95
(lp4201
F0.0
aF1.9964412811387897
asI96
(lp4202
F0.0
aF1.9999999999999996
asI97
(lp4203
F0.0
aF2.0
asI98
(lp4204
F0.1635631327760766
aF2.0
asI99
(lp4205
F0.0
aF2.0
assI58
(dp4206
I58
(lp4207
F2.0
aF2.0
asI59
(lp4208
F0.0
aF2.0
asI60
(lp4209
F1.2708377518557794
aF1.9999999999999996
asI61
(lp4210
F0.0
aF2.0
asI62
(lp4211
F0.0
aF1.9999999999999998
asI63
(lp4212
F0.0
aF1.9999999999999993
asI64
(lp4213
F0.0
aF1.9999999999999998
asI65
(lp4214
F0.0
aF1.993548387096774
asI66
(lp4215
F0.0
aF1.9999999999999996
asI67
(lp4216
F0.0
aF1.9999999999999998
asI68
(lp4217
F0.0
aF1.9918699186991868
asI69
(lp4218
F0.0
aF1.9999999999999998
asI70
(lp4219
F0.0
aF1.9999999999999996
asI71
(lp4220
F0.0
aF1.996845425867508
asI72
(lp4221
F0.0
aF2.0
asI73
(lp4222
F0.0
aF2.0000000000000004
asI74
(lp4223
F0.0
aF2.0
asI75
(lp4224
F0.0
aF1.9999999999999996
asI76
(lp4225
F0.0
aF1.9999999999999996
asI77
(lp4226
F0.0
aF1.9999999999999998
asI78
(lp4227
F0.1988643737832576
aF1.992537313432836
asI79
(lp4228
F0.0
aF1.9999999999999998
asI80
(lp4229
F0.0
aF1.9934210526315788
asI81
(lp4230
F0.0
aF1.996031746031746
asI82
(lp4231
F0.0
aF2.0
asI83
(lp4232
F0.0
aF1.9999999999999998
asI84
(lp4233
F0.0
aF1.989361702127659
asI85
(lp4234
F0.0
aF1.9938650306748462
asI86
(lp4235
F0.0
aF1.9999999999999996
asI87
(lp4236
F0.0
aF2.0
asI88
(lp4237
F0.0
aF1.9999999999999998
asI89
(lp4238
F0.0
aF2.0
asI90
(lp4239
F0.0
aF1.995412844036697
asI91
(lp4240
F0.0
aF2.0
asI92
(lp4241
F0.0
aF1.9999999999999998
asI93
(lp4242
F0.0
aF1.996175908221797
asI94
(lp4243
F0.0
aF1.9856115107913668
asI95
(lp4244
F0.15434782608695652
aF1.9999999999999998
asI96
(lp4245
F0.0
aF1.9999999999999998
asI97
(lp4246
F0.0
aF1.9969969969969972
asI98
(lp4247
F0.0
aF1.9999999999999993
asI99
(lp4248
F0.0
aF1.9999999999999998
assI59
(dp4249
I59
(lp4250
F2.0
aF2.0
asI60
(lp4251
F0.1359471755339315
aF2.0000000000000004
asI61
(lp4252
F0.0
aF2.0
asI62
(lp4253
F0.0
aF2.0
asI63
(lp4254
F0.0
aF2.0
asI64
(lp4255
F0.0
aF1.9999999999999998
asI65
(lp4256
F0.0
aF1.993548387096774
asI66
(lp4257
F0.0
aF1.9999999999999996
asI67
(lp4258
F0.0
aF2.0
asI68
(lp4259
F0.0
aF2.0000000000000004
asI69
(lp4260
F0.0
aF2.0
asI70
(lp4261
F0.0
aF2.0
asI71
(lp4262
F0.10003105539301417
aF2.0000000000000004
asI72
(lp4263
F0.0
aF2.0
asI73
(lp4264
F0.0
aF2.0
asI74
(lp4265
F0.0
aF2.0
asI75
(lp4266
F0.0
aF2.0000000000000004
asI76
(lp4267
F0.0
aF2.0000000000000004
asI77
(lp4268
F0.0
aF2.0
asI78
(lp4269
F0.37932101152269737
aF1.9925373134328357
asI79
(lp4270
F0.0
aF2.0
asI80
(lp4271
F0.0
aF2.0
asI81
(lp4272
F0.0
aF2.0
asI82
(lp4273
F0.0
aF1.9951456310679614
asI83
(lp4274
F0.0
aF2.0000000000000004
asI84
(lp4275
F0.0
aF2.0
asI85
(lp4276
F0.0
aF1.9938650306748467
asI86
(lp4277
F0.0
aF2.0
asI87
(lp4278
F0.0
aF2.0
asI88
(lp4279
F0.0
aF2.0000000000000004
asI89
(lp4280
F0.0
aF2.0
asI90
(lp4281
F0.0
aF2.0
asI91
(lp4282
F0.0
aF2.0000000000000004
asI92
(lp4283
F0.0
aF2.0
asI93
(lp4284
F0.0
aF1.994263862332696
asI94
(lp4285
F0.0
aF2.0
asI95
(lp4286
F0.0
aF2.0
asI96
(lp4287
F0.0
aF2.0
asI97
(lp4288
F0.0
aF1.9999999999999998
asI98
(lp4289
F1.14853195164076
aF2.0
asI99
(lp4290
F0.0
aF2.0000000000000004
assI60
(dp4291
I60
(lp4292
F2.0
aF2.0
asI61
(lp4293
F0.0
aF2.0
asI62
(lp4294
F0.0
aF2.0
asI63
(lp4295
F0.0
aF2.0
asI64
(lp4296
F0.0
aF2.0
asI65
(lp4297
F0.0
aF2.0
asI66
(lp4298
F0.0
aF2.0
asI67
(lp4299
F0.0
aF1.9999999999999998
asI68
(lp4300
F0.0
aF1.9999999999999998
asI69
(lp4301
F0.0
aF1.9999999999999998
asI70
(lp4302
F0.0
aF2.0
asI71
(lp4303
F0.0
aF1.996845425867508
asI72
(lp4304
F0.0
aF2.0
asI73
(lp4305
F0.0
aF2.0
asI74
(lp4306
F0.0
aF2.0
asI75
(lp4307
F0.0
aF2.0000000000000004
asI76
(lp4308
F0.0
aF2.0
asI77
(lp4309
F0.0
aF2.0000000000000004
asI78
(lp4310
F0.0
aF1.9962686567164176
asI79
(lp4311
F0.0
aF2.0
asI80
(lp4312
F0.0
aF1.9934210526315785
asI81
(lp4313
F0.0
aF1.9999999999999996
asI82
(lp4314
F1.5065119583234667
aF1.9951456310679612
asI83
(lp4315
F0.0
aF2.0
asI84
(lp4316
F0.0
aF1.9893617021276595
asI85
(lp4317
F0.0
aF1.9938650306748462
asI86
(lp4318
F0.0
aF1.9999999999999998
asI87
(lp4319
F0.0
aF2.0
asI88
(lp4320
F0.0
aF2.0
asI89
(lp4321
F0.0
aF2.0
asI90
(lp4322
F0.0
aF1.9954128440366972
asI91
(lp4323
F0.0
aF2.0
asI92
(lp4324
F0.0
aF2.0
asI93
(lp4325
F0.0
aF1.9961759082217974
asI94
(lp4326
F0.0
aF1.9928057553956833
asI95
(lp4327
F0.0
aF1.9999999999999996
asI96
(lp4328
F0.0
aF2.0
asI97
(lp4329
F1.2842598696257232
aF1.9969969969969972
asI98
(lp4330
F0.0
aF2.0
asI99
(lp4331
F0.0
aF2.0
assI61
(dp4332
I61
(lp4333
F2.0
aF2.0
asI62
(lp4334
F0.0
aF2.0
asI63
(lp4335
F0.0
aF2.0
asI64
(lp4336
F0.0
aF2.0
asI65
(lp4337
F0.0
aF1.9935483870967745
asI66
(lp4338
F0.0
aF1.9999999999999996
asI67
(lp4339
F0.0
aF1.9999999999999998
asI68
(lp4340
F0.0
aF2.0
asI69
(lp4341
F0.0
aF1.9999999999999996
asI70
(lp4342
F0.0
aF1.9999999999999996
asI71
(lp4343
F0.0
aF2.0
asI72
(lp4344
F0.29388446923097955
aF2.0000000000000004
asI73
(lp4345
F0.0
aF1.9999999999999998
asI74
(lp4346
F0.0
aF2.0000000000000004
asI75
(lp4347
F0.0
aF2.0
asI76
(lp4348
F0.0
aF1.9999999999999998
asI77
(lp4349
F0.0
aF2.0
asI78
(lp4350
F0.0
aF1.9925373134328357
asI79
(lp4351
F0.0
aF2.0000000000000004
asI80
(lp4352
F0.0
aF1.993421052631579
asI81
(lp4353
F0.0
aF2.0
asI82
(lp4354
F0.0
aF1.995145631067961
asI83
(lp4355
F0.0
aF1.9999999999999998
asI84
(lp4356
F0.0
aF1.989361702127659
asI85
(lp4357
F0.0
aF1.9938650306748464
asI86
(lp4358
F0.0
aF1.9999999999999998
asI87
(lp4359
F0.0
aF1.9999999999999998
asI88
(lp4360
F0.0
aF2.0
asI89
(lp4361
F0.0
aF1.9999999999999998
asI90
(lp4362
F0.0
aF1.9954128440366972
asI91
(lp4363
F0.0
aF2.0000000000000004
asI92
(lp4364
F0.0
aF1.9999999999999996
asI93
(lp4365
F0.0
aF1.996175908221797
asI94
(lp4366
F0.0
aF1.9928057553956833
asI95
(lp4367
F0.0
aF1.9999999999999998
asI96
(lp4368
F1.0978198232808298
aF1.9999999999999998
asI97
(lp4369
F0.0
aF2.0000000000000004
asI98
(lp4370
F0.0
aF2.0
asI99
(lp4371
F0.0
aF2.0
assI62
(dp4372
I62
(lp4373
F2.0
aF2.0
asI63
(lp4374
F0.0
aF2.0
asI64
(lp4375
F0.0
aF1.9999999999999998
asI65
(lp4376
F0.0
aF1.9935483870967743
asI66
(lp4377
F0.0
aF2.0
asI67
(lp4378
F0.0
aF1.9999999999999996
asI68
(lp4379
F0.0
aF2.0
asI69
(lp4380
F0.0
aF2.0
asI70
(lp4381
F0.0
aF2.0
asI71
(lp4382
F0.0
aF1.9999999999999998
asI72
(lp4383
F0.0
aF2.0
asI73
(lp4384
F0.0
aF1.9999999999999998
asI74
(lp4385
F0.0
aF1.9946524064171123
asI75
(lp4386
F0.0
aF1.995121951219512
asI76
(lp4387
F0.0
aF1.9999999999999996
asI77
(lp4388
F0.0
aF2.0
asI78
(lp4389
F0.0
aF1.9852796457274067
asI79
(lp4390
F0.0
aF2.0
asI80
(lp4391
F0.0
aF1.9934210526315788
asI81
(lp4392
F0.0
aF1.9999999999999996
asI82
(lp4393
F0.0
aF1.9951456310679614
asI83
(lp4394
F0.0
aF2.0
asI84
(lp4395
F0.0
aF1.9999999999999996
asI85
(lp4396
F0.0
aF1.9938650306748464
asI86
(lp4397
F0.0
aF2.0
asI87
(lp4398
F0.0
aF2.0
asI88
(lp4399
F0.0
aF2.0
asI89
(lp4400
F0.0
aF1.9999999999999996
asI90
(lp4401
F0.0
aF2.0
asI91
(lp4402
F0.0
aF2.0000000000000004
asI92
(lp4403
F0.0
aF2.0
asI93
(lp4404
F0.0
aF1.9980879541108985
asI94
(lp4405
F0.0
aF1.9928057553956835
asI95
(lp4406
F0.0
aF1.9999999999999998
asI96
(lp4407
F0.0
aF2.0
asI97
(lp4408
F0.0
aF2.0
asI98
(lp4409
F0.0
aF2.0000000000000004
asI99
(lp4410
F0.0
aF1.9999999999999998
assI63
(dp4411
I63
(lp4412
F2.0
aF2.0
asI64
(lp4413
F0.0
aF2.0000000000000004
asI65
(lp4414
F0.0
aF1.9935483870967743
asI66
(lp4415
F0.0
aF1.9999999999999996
asI67
(lp4416
F0.0
aF1.992125984251968
asI68
(lp4417
F0.0
aF2.0
asI69
(lp4418
F0.0
aF1.9999999999999996
asI70
(lp4419
F0.0
aF1.9999999999999996
asI71
(lp4420
F0.0
aF2.0
asI72
(lp4421
F0.0
aF2.0
asI73
(lp4422
F0.0
aF1.9999999999999998
asI74
(lp4423
F0.0
aF1.9999999999999998
asI75
(lp4424
F0.0
aF2.0
asI76
(lp4425
F0.0
aF1.9999999999999998
asI77
(lp4426
F0.44762067785005133
aF2.0
asI78
(lp4427
F0.0
aF1.9925373134328352
asI79
(lp4428
F0.0
aF2.0
asI80
(lp4429
F0.0
aF1.9999999999999998
asI81
(lp4430
F0.0
aF1.9999999999999996
asI82
(lp4431
F0.0
aF1.995145631067961
asI83
(lp4432
F0.0
aF1.9999999999999998
asI84
(lp4433
F0.0
aF1.9893617021276588
asI85
(lp4434
F0.0
aF1.9938650306748464
asI86
(lp4435
F0.0
aF1.9999999999999998
asI87
(lp4436
F0.0
aF1.9999999999999996
asI88
(lp4437
F0.0
aF1.995049504950495
asI89
(lp4438
F0.0
aF1.9999999999999996
asI90
(lp4439
F0.0
aF1.995412844036697
asI91
(lp4440
F0.0
aF2.0
asI92
(lp4441
F0.0
aF1.9999999999999996
asI93
(lp4442
F0.0
aF1.9961759082217967
asI94
(lp4443
F0.0
aF2.0000000000000004
asI95
(lp4444
F0.0
aF1.9999999999999998
asI96
(lp4445
F0.0
aF1.9999999999999996
asI97
(lp4446
F0.0
aF1.9999999999999998
asI98
(lp4447
F0.0
aF2.0
asI99
(lp4448
F0.0
aF2.0
assI64
(dp4449
I64
(lp4450
F1.9999999999999993
aF1.9999999999999993
asI65
(lp4451
F0.0
aF1.9999999999999998
asI66
(lp4452
F0.0
aF1.9999999999999993
asI67
(lp4453
F0.0
aF2.0
asI68
(lp4454
F0.0
aF2.0000000000000004
asI69
(lp4455
F0.0
aF2.0
asI70
(lp4456
F0.0
aF2.0
asI71
(lp4457
F0.0
aF2.0
asI72
(lp4458
F0.0
aF2.0
asI73
(lp4459
F0.0
aF2.0
asI74
(lp4460
F0.0
aF2.0
asI75
(lp4461
F0.9212068419385493
aF2.0
asI76
(lp4462
F0.32819091736289185
aF1.9999999999999998
asI77
(lp4463
F0.0173630717108978
aF2.0000000000000004
asI78
(lp4464
F0.0
aF2.0000000000000004
asI79
(lp4465
F0.0
aF2.0
asI80
(lp4466
F0.0
aF2.0
asI81
(lp4467
F1.0649350649350648
aF1.9960317460317456
asI82
(lp4468
F0.0
aF1.9951456310679614
asI83
(lp4469
F0.0
aF2.0
asI84
(lp4470
F0.0
aF1.9999999999999998
asI85
(lp4471
F0.0
aF1.9938650306748464
asI86
(lp4472
F0.0
aF2.0
asI87
(lp4473
F0.0
aF2.0
asI88
(lp4474
F0.0
aF2.0
asI89
(lp4475
F0.0
aF1.9999999999999998
asI90
(lp4476
F0.0
aF1.995412844036697
asI91
(lp4477
F0.0
aF2.0
asI92
(lp4478
F0.0
aF2.0000000000000004
asI93
(lp4479
F0.0
aF1.9961759082217976
asI94
(lp4480
F0.0
aF1.9999999999999996
asI95
(lp4481
F0.0
aF1.9999999999999998
asI96
(lp4482
F0.0
aF1.9999999999999998
asI97
(lp4483
F0.0
aF2.0
asI98
(lp4484
F0.0
aF1.9999999999999998
asI99
(lp4485
F0.0
aF2.0
assI65
(dp4486
I65
(lp4487
F1.9870967741935481
aF1.9483870967741934
asI66
(lp4488
F0.0
aF1.9999999999999998
asI67
(lp4489
F0.0
aF1.993548387096774
asI68
(lp4490
F0.0
aF1.974193548387097
asI69
(lp4491
F0.0
aF1.9741935483870967
asI70
(lp4492
F0.0
aF1.9935483870967743
asI71
(lp4493
F0.0
aF1.9935483870967743
asI72
(lp4494
F0.0
aF1.9806451612903226
asI73
(lp4495
F0.0
aF1.993548387096774
asI74
(lp4496
F0.0
aF1.9806451612903224
asI75
(lp4497
F0.0
aF1.9935483870967745
asI76
(lp4498
F0.0
aF1.9806451612903229
asI77
(lp4499
F0.0
aF1.9999999999999998
asI78
(lp4500
F0.0
aF1.98608570052961
asI79
(lp4501
F0.0
aF1.9935483870967743
asI80
(lp4502
F0.0
aF1.9935483870967743
asI81
(lp4503
F0.0
aF1.993548387096774
asI82
(lp4504
F0.0
aF1.9886940181647357
asI83
(lp4505
F0.0
aF1.9935483870967743
asI84
(lp4506
F0.0
aF2.0
asI85
(lp4507
F0.0
aF1.9874134177716207
asI86
(lp4508
F0.0
aF1.993548387096774
asI87
(lp4509
F0.0
aF2.0000000000000004
asI88
(lp4510
F0.0
aF1.9935483870967743
asI89
(lp4511
F0.8891840607210626
aF1.993548387096774
asI90
(lp4512
F0.0
aF1.995412844036697
asI91
(lp4513
F0.0
aF1.9935483870967745
asI92
(lp4514
F0.0
aF2.0
asI93
(lp4515
F0.0
aF1.9897242953185716
asI94
(lp4516
F0.0
aF1.9791598978881413
asI95
(lp4517
F0.0
aF2.0
asI96
(lp4518
F0.0
aF1.9806451612903224
asI97
(lp4519
F0.0
aF1.9806451612903226
asI98
(lp4520
F0.0
aF1.9935483870967743
asI99
(lp4521
F0.0
aF2.0
assI66
(dp4522
I66
(lp4523
F1.9999999999999996
aF1.9999999999999996
asI67
(lp4524
F0.0
aF1.9999999999999998
asI68
(lp4525
F0.0
aF1.9918699186991873
asI69
(lp4526
F0.0
aF1.9948717948717944
asI70
(lp4527
F0.0
aF1.9999999999999993
asI71
(lp4528
F0.0
aF1.9999999999999996
asI72
(lp4529
F0.1780466724286949
aF1.9999999999999998
asI73
(lp4530
F0.0
aF1.9999999999999998
asI74
(lp4531
F0.0
aF1.9999999999999998
asI75
(lp4532
F0.0
aF2.0
asI76
(lp4533
F0.0
aF1.9999999999999996
asI77
(lp4534
F0.0
aF2.0
asI78
(lp4535
F0.13662456946039037
aF1.9925373134328357
asI79
(lp4536
F0.0
aF1.9999999999999996
asI80
(lp4537
F0.0
aF2.0
asI81
(lp4538
F0.10732600732600732
aF1.9999999999999996
asI82
(lp4539
F0.0
aF1.9948717948717944
asI83
(lp4540
F0.0
aF1.9999999999999996
asI84
(lp4541
F0.0
aF1.9999999999999996
asI85
(lp4542
F0.0
aF1.9999999999999998
asI86
(lp4543
F0.0
aF1.9999999999999993
asI87
(lp4544
F0.0
aF1.9999999999999996
asI88
(lp4545
F0.0
aF2.0
asI89
(lp4546
F0.0
aF1.9999999999999993
asI90
(lp4547
F0.0
aF1.9999999999999998
asI91
(lp4548
F1.123076923076923
aF2.0
asI92
(lp4549
F0.06650968079539507
aF1.9999999999999998
asI93
(lp4550
F0.0
aF1.9999999999999993
asI94
(lp4551
F0.0
aF2.0000000000000004
asI95
(lp4552
F0.0
aF1.9999999999999996
asI96
(lp4553
F0.0
aF1.9999999999999998
asI97
(lp4554
F0.0
aF1.9999999999999998
asI98
(lp4555
F0.0
aF1.9999999999999998
asI99
(lp4556
F0.31431416479960167
aF1.9999999999999998
assI67
(dp4557
I67
(lp4558
F1.984251968503937
aF1.9842519685039366
asI68
(lp4559
F0.0
aF1.9999999999999998
asI69
(lp4560
F0.0
aF1.9921259842519683
asI70
(lp4561
F0.0
aF1.9999999999999996
asI71
(lp4562
F0.0
aF1.9921259842519683
asI72
(lp4563
F0.0
aF1.9999999999999998
asI73
(lp4564
F0.0
aF1.9999999999999998
asI74
(lp4565
F0.0
aF2.0
asI75
(lp4566
F0.0
aF1.9999999999999998
asI76
(lp4567
F0.0
aF1.9808917197452225
asI77
(lp4568
F0.0
aF1.9921259842519685
asI78
(lp4569
F0.0
aF1.992537313432836
asI79
(lp4570
F0.0
aF1.9921259842519687
asI80
(lp4571
F0.0
aF1.9921259842519683
asI81
(lp4572
F0.0
aF1.9999999999999996
asI82
(lp4573
F0.0
aF1.9951456310679607
asI83
(lp4574
F0.0
aF1.9946236559139783
asI84
(lp4575
F0.0
aF1.9999999999999996
asI85
(lp4576
F0.0
aF1.9938650306748462
asI86
(lp4577
F0.0
aF1.9999999999999993
asI87
(lp4578
F0.0
aF1.9999999999999998
asI88
(lp4579
F0.0
aF1.9999999999999998
asI89
(lp4580
F0.0
aF1.9921259842519683
asI90
(lp4581
F0.0
aF1.9875388282886655
asI91
(lp4582
F0.0
aF1.9921259842519683
asI92
(lp4583
F0.0
aF2.0000000000000004
asI93
(lp4584
F0.0
aF1.9942638623326954
asI94
(lp4585
F0.0
aF1.9921259842519683
asI95
(lp4586
F0.0
aF1.9999999999999998
asI96
(lp4587
F0.0
aF1.9999999999999996
asI97
(lp4588
F0.0
aF1.9999999999999998
asI98
(lp4589
F0.0
aF1.9999999999999998
asI99
(lp4590
F0.0
aF1.9999999999999996
assI68
(dp4591
I68
(lp4592
F1.9837398373983737
aF1.9837398373983737
asI69
(lp4593
F0.0
aF1.9999999999999998
asI70
(lp4594
F0.0
aF2.0000000000000004
asI71
(lp4595
F0.0
aF2.0000000000000004
asI72
(lp4596
F0.0
aF2.0
asI73
(lp4597
F0.0
aF2.0
asI74
(lp4598
F0.0
aF2.0
asI75
(lp4599
F0.0
aF2.0
asI76
(lp4600
F0.0
aF1.9999999999999998
asI77
(lp4601
F0.0
aF1.9918699186991866
asI78
(lp4602
F0.0
aF1.9925373134328361
asI79
(lp4603
F0.0
aF2.0
asI80
(lp4604
F0.0
aF2.0
asI81
(lp4605
F0.0
aF2.0
asI82
(lp4606
F0.0
aF1.9951456310679614
asI83
(lp4607
F0.0
aF2.0
asI84
(lp4608
F0.0
aF1.9999999999999998
asI85
(lp4609
F0.0
aF1.9938650306748464
asI86
(lp4610
F0.0
aF1.9999999999999998
asI87
(lp4611
F0.0
aF1.9999999999999998
asI88
(lp4612
F0.0
aF2.0000000000000004
asI89
(lp4613
F0.0
aF2.0
asI90
(lp4614
F0.0
aF1.9954128440366974
asI91
(lp4615
F0.0
aF2.0
asI92
(lp4616
F0.0
aF2.0
asI93
(lp4617
F0.0
aF1.9961759082217976
asI94
(lp4618
F0.0
aF1.985611510791367
asI95
(lp4619
F0.0
aF1.9999999999999998
asI96
(lp4620
F0.0
aF1.9999999999999996
asI97
(lp4621
F0.8045850728777557
aF2.0
asI98
(lp4622
F0.0
aF2.0000000000000004
asI99
(lp4623
F0.0
aF2.0
assI69
(dp4624
I69
(lp4625
F1.9861111111111107
aF1.9861111111111107
asI70
(lp4626
F0.0
aF2.0000000000000004
asI71
(lp4627
F0.0
aF1.9968454258675077
asI72
(lp4628
F1.1387328339575529
aF1.9999999999999996
asI73
(lp4629
F0.0
aF2.0
asI74
(lp4630
F0.0
aF2.0
asI75
(lp4631
F0.0
aF1.9999999999999998
asI76
(lp4632
F0.0
aF1.9999999999999996
asI77
(lp4633
F0.0
aF2.0
asI78
(lp4634
F0.0
aF1.9925373134328357
asI79
(lp4635
F0.31952836522322925
aF2.0000000000000004
asI80
(lp4636
F0.0
aF1.9999999999999998
asI81
(lp4637
F0.0
aF1.9999999999999996
asI82
(lp4638
F0.0
aF1.9951456310679607
asI83
(lp4639
F0.0
aF2.0
asI84
(lp4640
F0.0
aF1.9999999999999998
asI85
(lp4641
F0.0
aF1.9938650306748464
asI86
(lp4642
F0.0
aF1.9999999999999993
asI87
(lp4643
F0.0
aF1.9999999999999993
asI88
(lp4644
F0.0
aF1.9999999999999998
asI89
(lp4645
F0.0
aF1.9999999999999998
asI90
(lp4646
F0.0
aF1.995412844036697
asI91
(lp4647
F0.0
aF2.0
asI92
(lp4648
F0.0
aF2.0
asI93
(lp4649
F0.0
aF1.9980879541108987
asI94
(lp4650
F0.0
aF1.9928057553956833
asI95
(lp4651
F0.0
aF1.9999999999999998
asI96
(lp4652
F0.0
aF1.9999999999999996
asI97
(lp4653
F0.2346096096096096
aF1.996996996996997
asI98
(lp4654
F0.0
aF2.0
asI99
(lp4655
F1.317017259978425
aF1.9999999999999996
assI70
(dp4656
I70
(lp4657
F2.0
aF2.0
asI71
(lp4658
F0.0
aF2.0
asI72
(lp4659
F0.0
aF2.0
asI73
(lp4660
F0.0
aF1.9999999999999998
asI74
(lp4661
F0.0
aF2.0
asI75
(lp4662
F0.0
aF1.9999999999999998
asI76
(lp4663
F0.0
aF1.9999999999999998
asI77
(lp4664
F0.0
aF2.0
asI78
(lp4665
F0.0
aF1.9925373134328357
asI79
(lp4666
F0.0
aF1.9999999999999996
asI80
(lp4667
F0.0
aF1.993421052631579
asI81
(lp4668
F0.0
aF2.0
asI82
(lp4669
F0.0
aF1.9999999999999993
asI83
(lp4670
F0.0
aF2.0000000000000004
asI84
(lp4671
F0.0
aF2.0
asI85
(lp4672
F0.0
aF1.9938650306748469
asI86
(lp4673
F0.0
aF1.9999999999999996
asI87
(lp4674
F1.4177699155443961
aF1.9999999999999998
asI88
(lp4675
F0.0
aF1.9999999999999998
asI89
(lp4676
F0.0
aF1.9999999999999996
asI90
(lp4677
F0.0
aF1.9954128440366974
asI91
(lp4678
F0.0
aF2.0
asI92
(lp4679
F0.0
aF2.0
asI93
(lp4680
F0.0
aF1.9980879541108987
asI94
(lp4681
F0.0
aF1.9928057553956835
asI95
(lp4682
F0.0
aF1.9999999999999998
asI96
(lp4683
F0.0
aF1.9999999999999998
asI97
(lp4684
F0.0
aF1.9999999999999996
asI98
(lp4685
F0.0
aF2.0
asI99
(lp4686
F0.0
aF1.9999999999999996
assI71
(dp4687
I71
(lp4688
F1.9999999999999998
aF1.9999999999999998
asI72
(lp4689
F0.12183508784366545
aF2.0
asI73
(lp4690
F0.0
aF1.9943181818181819
asI74
(lp4691
F0.07282511513352115
aF1.996845425867508
asI75
(lp4692
F0.0
aF2.0
asI76
(lp4693
F0.0
aF1.9999999999999998
asI77
(lp4694
F0.0
aF1.9999999999999998
asI78
(lp4695
F0.0
aF1.9931140825839262
asI79
(lp4696
F0.0
aF2.0
asI80
(lp4697
F0.0
aF2.0
asI81
(lp4698
F0.0
aF1.996031746031746
asI82
(lp4699
F0.0
aF1.995145631067961
asI83
(lp4700
F0.0
aF2.0
asI84
(lp4701
F0.0
aF1.9999999999999998
asI85
(lp4702
F0.0
aF1.9938650306748467
asI86
(lp4703
F0.0
aF2.0
asI87
(lp4704
F0.0
aF1.9968454258675081
asI88
(lp4705
F0.0
aF2.0
asI89
(lp4706
F0.0
aF2.0
asI90
(lp4707
F0.0
aF1.9954128440366974
asI91
(lp4708
F0.2935414245392662
aF2.0
asI92
(lp4709
F0.0
aF2.0000000000000004
asI93
(lp4710
F0.0
aF1.9980879541108985
asI94
(lp4711
F0.3410117332001906
aF1.996845425867508
asI95
(lp4712
F0.0
aF1.9999999999999998
asI96
(lp4713
F0.0
aF1.9968454258675077
asI97
(lp4714
F0.0
aF1.9969969969969972
asI98
(lp4715
F0.0
aF1.9968454258675077
asI99
(lp4716
F0.0
aF2.0
assI72
(dp4717
I72
(lp4718
F1.9999999999999998
aF1.9999999999999998
asI73
(lp4719
F0.0
aF1.9999999999999998
asI74
(lp4720
F0.0
aF1.9999999999999998
asI75
(lp4721
F0.0
aF2.0000000000000004
asI76
(lp4722
F0.0
aF1.9999999999999998
asI77
(lp4723
F0.0
aF2.0
asI78
(lp4724
F0.0
aF1.9925373134328357
asI79
(lp4725
F0.0
aF1.9999999999999998
asI80
(lp4726
F0.0
aF2.0
asI81
(lp4727
F0.0
aF1.9999999999999998
asI82
(lp4728
F0.0
aF1.9951456310679614
asI83
(lp4729
F0.0
aF2.0
asI84
(lp4730
F0.0
aF2.0
asI85
(lp4731
F0.0
aF1.9938650306748467
asI86
(lp4732
F0.0
aF1.9999999999999998
asI87
(lp4733
F0.0
aF2.0000000000000004
asI88
(lp4734
F0.0
aF2.0
asI89
(lp4735
F0.0
aF1.9999999999999998
asI90
(lp4736
F0.0
aF1.9954128440366974
asI91
(lp4737
F0.0
aF2.0
asI92
(lp4738
F0.0
aF2.0
asI93
(lp4739
F0.0
aF1.9980879541108985
asI94
(lp4740
F1.1160509794411662
aF2.0
asI95
(lp4741
F0.0
aF1.9999999999999998
asI96
(lp4742
F0.0
aF1.9999999999999998
asI97
(lp4743
F0.0
aF2.0
asI98
(lp4744
F0.0
aF2.0
asI99
(lp4745
F0.0
aF2.0000000000000004
assI73
(dp4746
I73
(lp4747
F1.9999999999999998
aF1.9999999999999998
asI74
(lp4748
F0.027406417112299467
aF2.0
asI75
(lp4749
F0.0
aF2.0
asI76
(lp4750
F1.0081789229878402
aF1.9999999999999998
asI77
(lp4751
F0.0
aF1.9999999999999998
asI78
(lp4752
F0.0
aF1.9925373134328361
asI79
(lp4753
F0.0
aF2.0
asI80
(lp4754
F0.0
aF1.9934210526315792
asI81
(lp4755
F0.0
aF1.9999999999999998
asI82
(lp4756
F0.9822374227714034
aF1.995145631067961
asI83
(lp4757
F0.0
aF1.9999999999999998
asI84
(lp4758
F0.0
aF2.0
asI85
(lp4759
F0.0
aF1.9938650306748469
asI86
(lp4760
F0.0
aF1.9999999999999998
asI87
(lp4761
F0.0
aF1.9999999999999998
asI88
(lp4762
F0.0
aF2.0
asI89
(lp4763
F0.0
aF1.9999999999999996
asI90
(lp4764
F0.0
aF2.0
asI91
(lp4765
F0.0
aF2.0
asI92
(lp4766
F0.0
aF2.0
asI93
(lp4767
F0.0
aF1.9980879541108987
asI94
(lp4768
F0.0
aF1.9928057553956833
asI95
(lp4769
F1.0570158102766798
aF1.9999999999999998
asI96
(lp4770
F0.0
aF2.0
asI97
(lp4771
F0.2133838383838384
aF2.0
asI98
(lp4772
F0.0
aF2.0000000000000004
asI99
(lp4773
F0.0
aF1.9999999999999998
assI74
(dp4774
I74
(lp4775
F2.0
aF2.0
asI75
(lp4776
F0.0
aF2.0
asI76
(lp4777
F0.0
aF2.000000000000001
asI77
(lp4778
F0.0
aF2.0000000000000004
asI78
(lp4779
F0.0
aF1.9962686567164183
asI79
(lp4780
F0.0
aF1.9999999999999998
asI80
(lp4781
F0.0
aF1.9934210526315788
asI81
(lp4782
F0.0
aF2.0
asI82
(lp4783
F0.0
aF1.9897980374850734
asI83
(lp4784
F0.0
aF2.0
asI84
(lp4785
F0.0
aF2.0
asI85
(lp4786
F0.0
aF1.9938650306748467
asI86
(lp4787
F0.0
aF1.9999999999999998
asI87
(lp4788
F0.0
aF2.0
asI88
(lp4789
F0.0
aF2.0
asI89
(lp4790
F0.0
aF2.0000000000000004
asI90
(lp4791
F0.0
aF1.9900652504538097
asI91
(lp4792
F1.3219251336898394
aF2.0
asI92
(lp4793
F0.0
aF2.0
asI93
(lp4794
F0.0
aF1.9980879541108985
asI94
(lp4795
F0.0
aF2.0
asI95
(lp4796
F0.0
aF1.9999999999999996
asI96
(lp4797
F0.0
aF2.0
asI97
(lp4798
F0.0
aF2.0
asI98
(lp4799
F0.0
aF2.0000000000000004
asI99
(lp4800
F0.0
aF2.0
assI75
(dp4801
I75
(lp4802
F2.0000000000000004
aF2.0000000000000004
asI76
(lp4803
F0.0
aF2.0000000000000004
asI77
(lp4804
F0.0
aF1.9951219512195122
asI78
(lp4805
F0.0
aF1.992537313432836
asI79
(lp4806
F0.9256502836931693
aF1.9999999999999998
asI80
(lp4807
F0.0
aF1.993421052631579
asI81
(lp4808
F0.0
aF1.9999999999999998
asI82
(lp4809
F0.0
aF1.9951456310679612
asI83
(lp4810
F0.0
aF2.0
asI84
(lp4811
F0.0
aF2.0
asI85
(lp4812
F0.0
aF1.9938650306748464
asI86
(lp4813
F0.0
aF1.9999999999999998
asI87
(lp4814
F0.0
aF1.9999999999999998
asI88
(lp4815
F0.0
aF2.0000000000000004
asI89
(lp4816
F0.0
aF1.9999999999999998
asI90
(lp4817
F0.0
aF1.9954128440366974
asI91
(lp4818
F0.0
aF2.0
asI92
(lp4819
F0.0
aF2.0
asI93
(lp4820
F0.0
aF1.9980879541108987
asI94
(lp4821
F0.0
aF1.9928057553956833
asI95
(lp4822
F0.07815482502651114
aF1.9999999999999998
asI96
(lp4823
F0.0
aF2.0
asI97
(lp4824
F0.0
aF2.0
asI98
(lp4825
F0.0
aF2.0000000000000004
asI99
(lp4826
F0.0
aF2.0
assI76
(dp4827
I76
(lp4828
F2.0
aF2.0
asI77
(lp4829
F0.0
aF2.0000000000000004
asI78
(lp4830
F0.0
aF1.9962686567164176
asI79
(lp4831
F0.0
aF2.0
asI80
(lp4832
F0.0
aF2.0
asI81
(lp4833
F1.103958143767061
aF1.9808917197452227
asI82
(lp4834
F0.0
aF1.9951456310679612
asI83
(lp4835
F0.0
aF1.9999999999999998
asI84
(lp4836
F0.0
aF1.9999999999999998
asI85
(lp4837
F0.0
aF1.9938650306748469
asI86
(lp4838
F0.0
aF1.9999999999999998
asI87
(lp4839
F0.0
aF1.9999999999999996
asI88
(lp4840
F0.0
aF2.0000000000000004
asI89
(lp4841
F0.0
aF1.9999999999999996
asI90
(lp4842
F0.0
aF2.0
asI91
(lp4843
F0.0
aF2.0000000000000004
asI92
(lp4844
F0.0
aF1.9999999999999998
asI93
(lp4845
F0.0
aF1.9961759082217974
asI94
(lp4846
F0.0
aF1.985611510791367
asI95
(lp4847
F1.0424674605372473
aF1.9999999999999996
asI96
(lp4848
F0.0
aF1.9999999999999998
asI97
(lp4849
F0.0
aF2.0
asI98
(lp4850
F0.0
aF2.0
asI99
(lp4851
F0.0
aF2.0
assI77
(dp4852
I77
(lp4853
F2.0
aF2.0
asI78
(lp4854
F0.0
aF1.9962686567164178
asI79
(lp4855
F0.0
aF1.9969788519637461
asI80
(lp4856
F0.0
aF1.9999999999999998
asI81
(lp4857
F0.0
aF1.9999999999999996
asI82
(lp4858
F0.0
aF2.0000000000000004
asI83
(lp4859
F0.0
aF1.9945652173913044
asI84
(lp4860
F0.0
aF2.0
asI85
(lp4861
F0.0
aF2.0
asI86
(lp4862
F0.0
aF1.9999999999999993
asI87
(lp4863
F0.0
aF2.0
asI88
(lp4864
F0.0
aF2.0000000000000004
asI89
(lp4865
F0.0
aF2.0
asI90
(lp4866
F0.0
aF1.9954128440366974
asI91
(lp4867
F0.0
aF2.0
asI92
(lp4868
F0.0
aF2.0
asI93
(lp4869
F0.0
aF1.998087954110899
asI94
(lp4870
F0.0
aF1.9928057553956833
asI95
(lp4871
F1.143478260869565
aF1.9999999999999996
asI96
(lp4872
F0.0
aF2.0
asI97
(lp4873
F0.0
aF2.0
asI98
(lp4874
F0.0
aF2.0000000000000004
asI99
(lp4875
F0.0
aF1.9999999999999998
assI78
(dp4876
I78
(lp4877
F1.9850746268656716
aF1.9850746268656716
asI79
(lp4878
F0.0
aF1.992537313432836
asI80
(lp4879
F0.0
aF1.989689709347997
asI81
(lp4880
F0.0
aF1.9925373134328357
asI82
(lp4881
F0.0
aF1.996268656716418
asI83
(lp4882
F0.0
aF1.9925373134328355
asI84
(lp4883
F0.0
aF1.9925373134328357
asI85
(lp4884
F0.0
aF1.9864023441076821
asI86
(lp4885
F0.0
aF1.9962686567164178
asI87
(lp4886
F0.0
aF1.9925373134328361
asI88
(lp4887
F0.0
aF1.9925373134328357
asI89
(lp4888
F0.0
aF1.9962686567164176
asI90
(lp4889
F0.0
aF1.9954128440366974
asI91
(lp4890
F0.0
aF1.9925373134328357
asI92
(lp4891
F0.0
aF1.9962686567164183
asI93
(lp4892
F0.0
aF2.0
asI94
(lp4893
F0.0
aF1.9928057553956835
asI95
(lp4894
F0.0
aF1.9962686567164176
asI96
(lp4895
F1.0177729772191673
aF1.9962686567164176
asI97
(lp4896
F0.0
aF1.9962686567164178
asI98
(lp4897
F0.0
aF1.996268656716418
asI99
(lp4898
F0.0
aF1.9962686567164174
assI79
(dp4899
I96
(lp4900
F0.0
aF1.9999999999999998
asI97
(lp4901
F1.0147882020993804
aF2.0
asI98
(lp4902
F0.0
aF2.0
asI99
(lp4903
F0.0
aF2.0
asI79
(lp4904
F2.0
aF2.0
asI80
(lp4905
F1.1069724916520909
aF1.9999999999999998
asI81
(lp4906
F0.0
aF1.9999999999999998
asI82
(lp4907
F0.9331094359545948
aF2.0
asI83
(lp4908
F0.0
aF1.9999999999999998
asI84
(lp4909
F0.0
aF1.9999999999999993
asI85
(lp4910
F0.0
aF1.9938650306748467
asI86
(lp4911
F0.0
aF2.0
asI87
(lp4912
F0.0
aF1.9999999999999998
asI88
(lp4913
F0.0
aF2.0
asI89
(lp4914
F0.0
aF1.9999999999999998
asI90
(lp4915
F0.994345741289947
aF1.995412844036697
asI91
(lp4916
F0.0
aF1.9999999999999998
asI92
(lp4917
F0.21550342191257169
aF2.0
asI93
(lp4918
F0.0
aF1.9980879541108985
asI94
(lp4919
F0.0
aF1.992805755395683
asI95
(lp4920
F1.0078878234598712
aF1.9999999999999996
assI80
(dp4921
I96
(lp4922
F0.0
aF1.9934210526315788
asI97
(lp4923
F0.0
aF2.0
asI98
(lp4924
F1.3114035087719298
aF2.0
asI99
(lp4925
F0.0
aF1.9934210526315785
asI80
(lp4926
F1.973684210526316
aF1.960526315789474
asI81
(lp4927
F0.0
aF1.9934210526315788
asI82
(lp4928
F0.0
aF1.9885666836995401
asI83
(lp4929
F0.0
aF2.0
asI84
(lp4930
F0.0
aF2.0
asI85
(lp4931
F0.0
aF1.9938650306748462
asI86
(lp4932
F0.0
aF1.9999999999999998
asI87
(lp4933
F0.0
aF1.9934210526315785
asI88
(lp4934
F0.0
aF1.9934210526315788
asI89
(lp4935
F0.0
aF1.9934210526315785
asI90
(lp4936
F0.0
aF1.9756760019314343
asI91
(lp4937
F0.0
aF1.9934210526315792
asI92
(lp4938
F0.0
aF1.9934210526315788
asI93
(lp4939
F0.0
aF1.9961759082217971
asI94
(lp4940
F0.0
aF1.9928057553956837
asI95
(lp4941
F0.0
aF1.9999999999999998
assI81
(dp4942
I96
(lp4943
F0.0
aF1.9999999999999998
asI97
(lp4944
F0.0
aF2.0
asI98
(lp4945
F0.0
aF1.9999999999999998
asI99
(lp4946
F0.0
aF1.9999999999999998
asI81
(lp4947
F1.9999999999999996
aF1.9999999999999996
asI82
(lp4948
F0.0
aF1.9999999999999998
asI83
(lp4949
F0.0
aF1.9999999999999996
asI84
(lp4950
F0.0
aF1.9999999999999993
asI85
(lp4951
F0.0
aF1.9938650306748462
asI86
(lp4952
F0.0
aF1.9999999999999996
asI87
(lp4953
F0.0
aF1.9960317460317458
asI88
(lp4954
F0.0
aF1.996031746031746
asI89
(lp4955
F0.0
aF1.9999999999999998
asI90
(lp4956
F0.0
aF1.9999999999999998
asI91
(lp4957
F0.13855472013366749
aF1.9999999999999998
asI92
(lp4958
F0.0
aF1.9999999999999998
asI93
(lp4959
F0.0
aF1.9961759082217974
asI94
(lp4960
F0.0
aF1.9999999999999998
asI95
(lp4961
F1.1527950310559005
aF1.9999999999999996
assI82
(dp4962
I96
(lp4963
F0.0
aF1.995145631067961
asI97
(lp4964
F0.0
aF1.995145631067961
asI98
(lp4965
F0.0
aF1.9951456310679612
asI99
(lp4966
F0.0
aF1.9951456310679612
asI82
(lp4967
F1.9902912621359221
aF1.9902912621359221
asI83
(lp4968
F0.0
aF1.9999999999999998
asI84
(lp4969
F0.0
aF1.9845073331956202
asI85
(lp4970
F0.0
aF1.9890106617428074
asI86
(lp4971
F0.0
aF1.9999999999999998
asI87
(lp4972
F0.0
aF2.0
asI88
(lp4973
F0.0
aF1.9951456310679614
asI89
(lp4974
F0.0
aF1.9999999999999996
asI90
(lp4975
F0.0
aF1.9951456310679612
asI91
(lp4976
F0.0
aF1.9951456310679614
asI92
(lp4977
F0.0
aF1.9951456310679607
asI93
(lp4978
F0.0
aF1.9913215392897583
asI94
(lp4979
F0.0
aF1.9951456310679612
asI95
(lp4980
F0.0
aF1.995145631067961
assI83
(dp4981
I96
(lp4982
F0.0
aF2.0
asI97
(lp4983
F0.0
aF1.9999999999999998
asI98
(lp4984
F0.0
aF2.0
asI99
(lp4985
F0.0
aF2.0
asI83
(lp4986
F1.9999999999999998
aF1.9999999999999998
asI84
(lp4987
F0.0
aF2.0
asI85
(lp4988
F0.0
aF1.9938650306748462
asI86
(lp4989
F0.0
aF1.9999999999999996
asI87
(lp4990
F0.0
aF1.9999999999999998
asI88
(lp4991
F0.0
aF2.0
asI89
(lp4992
F0.0
aF1.9999999999999996
asI90
(lp4993
F0.0
aF1.995412844036697
asI91
(lp4994
F0.0
aF2.0000000000000004
asI92
(lp4995
F0.0
aF1.9999999999999996
asI93
(lp4996
F0.0
aF1.994263862332696
asI94
(lp4997
F0.0
aF1.9928057553956833
asI95
(lp4998
F0.0
aF1.9999999999999998
assI84
(dp4999
I96
(lp5000
F0.0
aF2.0
asI97
(lp5001
F1.215737013609354
aF1.996996996996997
asI98
(lp5002
F0.0
aF1.9893617021276595
asI99
(lp5003
F0.0
aF2.0
asI84
(lp5004
F2.0000000000000004
aF2.0000000000000004
asI85
(lp5005
F0.0
aF1.9938650306748464
asI86
(lp5006
F0.0
aF1.9893617021276593
asI87
(lp5007
F0.0
aF1.9999999999999998
asI88
(lp5008
F0.0
aF2.0
asI89
(lp5009
F0.0
aF1.9999999999999998
asI90
(lp5010
F0.0
aF2.0
asI91
(lp5011
F0.0
aF2.0
asI92
(lp5012
F0.0
aF1.9999999999999996
asI93
(lp5013
F0.0
aF1.9980879541108987
asI94
(lp5014
F0.0
aF1.985611510791367
asI95
(lp5015
F0.0
aF1.9999999999999996
assI85
(dp5016
I96
(lp5017
F0.0
aF1.9938650306748462
asI97
(lp5018
F0.0
aF1.9938650306748467
asI98
(lp5019
F0.0
aF1.9938650306748467
asI99
(lp5020
F0.0
aF1.9938650306748462
asI85
(lp5021
F1.9877300613496935
aF1.9877300613496935
asI86
(lp5022
F0.0
aF1.9938650306748464
asI87
(lp5023
F0.0
aF1.9938650306748464
asI88
(lp5024
F0.0
aF1.9938650306748464
asI89
(lp5025
F0.0
aF1.993865030674847
asI90
(lp5026
F0.0
aF1.989277874711544
asI91
(lp5027
F0.0
aF1.9938650306748467
asI92
(lp5028
F0.0
aF1.9938650306748464
asI93
(lp5029
F0.0
aF1.9961759082217971
asI94
(lp5030
F0.0
aF1.9938650306748464
asI95
(lp5031
F0.0
aF1.9938650306748464
assI86
(dp5032
I96
(lp5033
F0.0
aF2.0
asI97
(lp5034
F0.0
aF2.0
asI98
(lp5035
F0.0
aF2.0
asI99
(lp5036
F0.0
aF1.9999999999999998
asI86
(lp5037
F2.0000000000000004
aF1.9500000000000004
asI87
(lp5038
F0.0
aF1.9999999999999996
asI88
(lp5039
F0.0
aF2.0
asI89
(lp5040
F0.0
aF1.9999999999999996
asI90
(lp5041
F0.0
aF1.9954128440366974
asI91
(lp5042
F0.0
aF1.9916666666666667
asI92
(lp5043
F0.0
aF1.9999999999999996
asI93
(lp5044
F0.0
aF1.9692638623326955
asI94
(lp5045
F0.0
aF1.9999999999999998
asI95
(lp5046
F0.0
aF1.9999999999999998
assI87
(dp5047
I96
(lp5048
F0.0
aF1.9999999999999998
asI97
(lp5049
F0.0
aF1.9969969969969972
asI98
(lp5050
F0.0
aF1.9999999999999998
asI99
(lp5051
F0.0
aF1.9999999999999998
asI87
(lp5052
F1.9999999999999998
aF1.9999999999999998
asI88
(lp5053
F0.0
aF2.0
asI89
(lp5054
F0.0
aF2.0
asI90
(lp5055
F0.0
aF1.995412844036697
asI91
(lp5056
F0.0
aF2.0
asI92
(lp5057
F0.0
aF2.0
asI93
(lp5058
F0.0
aF1.9961759082217971
asI94
(lp5059
F0.0
aF1.9928057553956833
asI95
(lp5060
F0.0
aF1.9999999999999993
assI88
(dp5061
I96
(lp5062
F0.0
aF1.9999999999999996
asI97
(lp5063
F0.0
aF2.0
asI98
(lp5064
F0.0
aF2.0
asI99
(lp5065
F0.0
aF2.0
asI88
(lp5066
F1.9900990099009903
aF1.9900990099009903
asI89
(lp5067
F0.0
aF1.9999999999999998
asI90
(lp5068
F0.0
aF1.9954128440366974
asI91
(lp5069
F0.0
aF2.0
asI92
(lp5070
F0.0
aF2.0
asI93
(lp5071
F0.0
aF1.9961759082217971
asI94
(lp5072
F0.0
aF1.985611510791367
asI95
(lp5073
F0.0
aF1.9999999999999998
assI89
(dp5074
I96
(lp5075
F0.0
aF1.9999999999999993
asI97
(lp5076
F0.0
aF2.0000000000000004
asI98
(lp5077
F0.0
aF1.9999999999999998
asI99
(lp5078
F0.0
aF1.9999999999999996
asI89
(lp5079
F1.9999999999999998
aF1.9999999999999998
asI90
(lp5080
F0.0
aF1.9954128440366972
asI91
(lp5081
F0.0
aF2.0
asI92
(lp5082
F0.0
aF1.9999999999999998
asI93
(lp5083
F0.0
aF1.994263862332696
asI94
(lp5084
F0.0
aF1.9999999999999998
asI95
(lp5085
F0.0
aF1.9999999999999993
assI90
(dp5086
I96
(lp5087
F0.0
aF1.9954128440366972
asI97
(lp5088
F0.0
aF2.0
asI98
(lp5089
F0.0
aF2.0
asI99
(lp5090
F0.0
aF1.9954128440366974
asI90
(lp5091
F1.9908256880733943
aF1.9908256880733943
asI91
(lp5092
F0.0
aF1.9954128440366974
asI92
(lp5093
F0.0
aF1.9954128440366967
asI93
(lp5094
F0.0
aF1.995412844036697
asI94
(lp5095
F0.0
aF1.9882185994323804
asI95
(lp5096
F0.0
aF2.0
assI91
(dp5097
I96
(lp5098
F0.0
aF1.9999999999999998
asI97
(lp5099
F0.0
aF2.0000000000000004
asI98
(lp5100
F0.0
aF2.0
asI99
(lp5101
F0.0
aF2.0
asI91
(lp5102
F2.0
aF2.0
asI92
(lp5103
F1.2428571428571429
aF2.0
asI93
(lp5104
F0.0
aF1.9980879541108985
asI94
(lp5105
F0.3221507004922378
aF1.9928057553956837
asI95
(lp5106
F0.0
aF1.9999999999999998
assI92
(dp5107
I96
(lp5108
F0.08686895810955961
aF2.0
asI97
(lp5109
F0.0
aF2.0000000000000004
asI98
(lp5110
F0.0
aF1.9999999999999998
asI99
(lp5111
F0.0
aF1.9999999999999996
asI92
(lp5112
F2.0
aF2.0
asI93
(lp5113
F0.0
aF1.9999999999999998
asI94
(lp5114
F0.0
aF1.9999999999999998
asI95
(lp5115
F0.0
aF1.9999999999999998
assI93
(dp5116
I96
(lp5117
F0.0
aF1.9980879541108987
asI97
(lp5118
F0.0
aF1.9942638623326963
asI98
(lp5119
F0.0
aF1.9961759082217971
asI99
(lp5120
F0.06972470251907405
aF1.9980879541108987
asI93
(lp5121
F1.9885277246653918
aF1.9885277246653918
asI94
(lp5122
F0.0
aF1.996175908221797
asI95
(lp5123
F0.0
aF1.996175908221797
assI94
(dp5124
I96
(lp5125
F0.0
aF1.9928057553956837
asI97
(lp5126
F0.0
aF1.989802752392681
asI98
(lp5127
F0.0
aF1.9928057553956835
asI99
(lp5128
F0.0
aF1.9856115107913668
asI94
(lp5129
F1.9712230215827342
aF1.9712230215827342
asI95
(lp5130
F0.0
aF1.9999999999999996
assI95
(dp5131
I96
(lp5132
F0.0
aF1.9934210526315785
asI97
(lp5133
F0.0
aF1.9999999999999998
asI98
(lp5134
F0.0
aF1.9999999999999998
asI99
(lp5135
F0.0
aF1.9999999999999998
asI95
(lp5136
F1.9999999999999996
aF1.9999999999999996
assI96
(dp5137
I96
(lp5138
F1.986842105263158
aF1.986842105263158
asI97
(lp5139
F0.0
aF1.9999999999999998
asI98
(lp5140
F0.0
aF1.9999999999999998
asI99
(lp5141
F0.0
aF1.9999999999999998
assI97
(dp5142
I97
(lp5143
F2.0
aF2.0
asI98
(lp5144
F0.0
aF2.0
asI99
(lp5145
F0.0
aF2.0
assI98
(dp5146
I98
(lp5147
F1.9844961240310077
aF1.9844961240310077
asI99
(lp5148
F0.0
aF2.0
assI99
(dp5149
I99
(lp5150
F2.0
aF2.0
ass.