(dp0
I0
(dp1
I0
(lp2
F1.997163120567376
aF1.997163120567376
asI1
(lp3
F0.0
aF1.9999999999999998
asI2
(lp4
F0.0
aF1.9985815602836883
asI3
(lp5
F0.0
aF1.9999999999999998
asI4
(lp6
F0.0
aF1.9985815602836878
asI5
(lp7
F0.0
aF1.9985815602836883
asI6
(lp8
F0.0
aF2.0000000000000004
asI7
(lp9
F0.6990563272961725
aF1.9985815602836878
asI8
(lp10
F0.0
aF1.995788264194303
asI9
(lp11
F0.5473758865248227
aF2.0
asI10
(lp12
F0.5520000976550579
aF1.9999999999999998
asI11
(lp13
F0.0
aF1.9940153502380256
asI12
(lp14
F0.4990332422045247
aF1.9985815602836878
asI13
(lp15
F0.0
aF1.9979079497907948
asI14
(lp16
F0.0
aF1.9999999999999998
asI15
(lp17
F0.0
aF1.9999999999999996
asI16
(lp18
F0.0
aF1.9985815602836878
asI17
(lp19
F0.0
aF1.998581560283688
asI18
(lp20
F0.5160557545116213
aF2.0
asI19
(lp21
F0.0
aF1.998581560283688
assI1
(dp22
I1
(lp23
F2.0
aF2.0
asI2
(lp24
F0.0
aF1.9967105263157892
asI3
(lp25
F0.7278457545420838
aF2.0
asI4
(lp26
F0.0
aF2.0
asI5
(lp27
F0.0
aF2.0
asI6
(lp28
F0.0
aF2.0
asI7
(lp29
F0.0
aF1.9983471074380161
asI8
(lp30
F0.0
aF1.9972067039106145
asI9
(lp31
F0.17551724137931035
aF2.0
asI10
(lp32
F0.9240152729143174
aF2.0
asI11
(lp33
F0.0
aF1.9954337899543377
asI12
(lp34
F0.0
aF2.0
asI13
(lp35
F0.5066320396287212
aF1.9979079497907948
asI14
(lp36
F0.08269463677703892
aF2.0000000000000004
asI15
(lp37
F0.0
aF2.0
asI16
(lp38
F0.0
aF1.9999999999999998
asI17
(lp39
F0.0
aF2.0
asI18
(lp40
F0.0
aF1.9975247524752475
asI19
(lp41
F1.4333471818307713
aF2.0
assI2
(dp42
I2
(lp43
F1.980263157894737
aF1.980263157894737
asI3
(lp44
F0.0
aF2.0
asI4
(lp45
F0.0
aF1.9967105263157896
asI5
(lp46
F0.0
aF2.0000000000000004
asI6
(lp47
F0.0
aF1.9925373134328357
asI7
(lp48
F0.0
aF1.9983471074380166
asI8
(lp49
F0.0
aF1.9972067039106147
asI9
(lp50
F0.0
aF1.9967105263157898
asI10
(lp51
F0.0
aF1.9999999999999998
asI11
(lp52
F0.8889389569814948
aF1.9921443162701271
asI12
(lp53
F0.0
aF2.0
asI13
(lp54
F0.0
aF1.9946184761065846
asI14
(lp55
F0.0
aF1.9967105263157898
asI15
(lp56
F0.0
aF2.0
asI16
(lp57
F0.0
aF1.9967105263157898
asI17
(lp58
F0.0
aF1.9999999999999996
asI18
(lp59
F0.0
aF1.997524752475248
asI19
(lp60
F0.0
aF1.9967105263157896
assI3
(dp61
I3
(lp62
F2.0
aF2.0
asI4
(lp63
F0.0
aF2.0
asI5
(lp64
F0.0
aF1.9999999999999998
asI6
(lp65
F0.0
aF2.0
asI7
(lp66
F0.0
aF1.9950413223140495
asI8
(lp67
F0.0
aF1.9972067039106145
asI9
(lp68
F0.0
aF1.9999999999999998
asI10
(lp69
F0.6139359280439731
aF2.0
asI11
(lp70
F0.0
aF1.9954337899543375
asI12
(lp71
F0.0
aF1.994413407821229
asI13
(lp72
F0.6292212174382508
aF1.9979079497907948
asI14
(lp73
F0.0
aF2.0
asI15
(lp74
F0.0
aF2.0
asI16
(lp75
F0.0
aF2.0
asI17
(lp76
F0.6440826507567331
aF2.0
asI18
(lp77
F0.0
aF2.0
asI19
(lp78
F0.0
aF2.0000000000000004
assI4
(dp79
I4
(lp80
F1.9999999999999996
aF1.9999999999999996
asI5
(lp81
F0.0
aF2.0000000000000004
asI6
(lp82
F0.0
aF1.9962686567164178
asI7
(lp83
F0.0
aF1.9983471074380164
asI8
(lp84
F0.0
aF1.9972067039106147
asI9
(lp85
F0.0
aF2.0
asI10
(lp86
F0.0
aF1.9999999999999998
asI11
(lp87
F0.0
aF1.9999999999999998
asI12
(lp88
F0.0
aF1.9972067039106145
asI13
(lp89
F0.0
aF1.9999999999999996
asI14
(lp90
F0.0
aF2.0
asI15
(lp91
F0.0
aF1.9999999999999996
asI16
(lp92
F0.0
aF1.9999999999999998
asI17
(lp93
F0.7478879974496573
aF1.9968652037617556
asI18
(lp94
F0.0
aF2.0
asI19
(lp95
F0.0
aF2.0
assI5
(dp96
I5
(lp97
F1.9999999999999998
aF1.9999999999999998
asI6
(lp98
F0.0
aF1.996268656716418
asI7
(lp99
F0.0
aF1.9983471074380168
asI8
(lp100
F0.0
aF1.9972067039106145
asI9
(lp101
F0.0
aF2.0
asI10
(lp102
F0.0
aF2.0
asI11
(lp103
F0.0
aF2.0
asI12
(lp104
F0.0
aF1.9999999999999998
asI13
(lp105
F0.0
aF2.0000000000000004
asI14
(lp106
F0.10327834691567309
aF2.0000000000000004
asI15
(lp107
F0.0
aF2.0
asI16
(lp108
F0.0
aF2.0
asI17
(lp109
F0.0
aF2.0000000000000004
asI18
(lp110
F0.0
aF2.0000000000000004
asI19
(lp111
F0.0
aF2.0000000000000004
assI6
(dp112
I6
(lp113
F1.9850746268656716
aF1.9850746268656716
asI7
(lp114
F0.6632724805723449
aF1.994615764154434
asI8
(lp115
F0.0
aF1.9999999999999998
asI9
(lp116
F0.0
aF1.9962686567164176
asI10
(lp117
F0.0
aF1.9945474863205483
asI11
(lp118
F0.0
aF1.9917024466707556
asI12
(lp119
F0.0
aF1.992537313432836
asI13
(lp120
F0.5117872978205208
aF1.9979079497907948
asI14
(lp121
F0.0
aF1.9962686567164178
asI15
(lp122
F0.5351273933363485
aF1.9962686567164178
asI16
(lp123
F0.0
aF1.9962686567164178
asI17
(lp124
F0.0
aF1.9999999999999998
asI18
(lp125
F0.0
aF1.996268656716418
asI19
(lp126
F0.16138684089592198
aF2.0
assI7
(dp127
I7
(lp128
F1.9867768595041324
aF1.9867768595041324
asI8
(lp129
F0.0
aF1.9955538113486309
asI9
(lp130
F0.0
aF1.9950413223140495
asI10
(lp131
F0.0
aF1.9983471074380164
asI11
(lp132
F0.0
aF1.9937808973923545
asI12
(lp133
F0.5966711297843853
aF1.9955538113486306
asI13
(lp134
F0.0
aF1.9962550572288114
asI14
(lp135
F0.0
aF1.996694214876033
asI15
(lp136
F0.0
aF1.998347107438016
asI16
(lp137
F0.0
aF1.9983471074380164
asI17
(lp138
F0.0
aF1.9983471074380164
asI18
(lp139
F0.0
aF1.99504132231405
asI19
(lp140
F0.0
aF1.9983471074380164
assI8
(dp141
I8
(lp142
F1.994413407821229
aF1.994413407821229
asI9
(lp143
F0.0
aF2.0000000000000004
asI10
(lp144
F0.0
aF2.0
asI11
(lp145
F0.0
aF1.997206703910615
asI12
(lp146
F0.0
aF1.997206703910615
asI13
(lp147
F0.0
aF2.0000000000000004
asI14
(lp148
F0.0
aF1.9972067039106145
asI15
(lp149
F0.0
aF1.9972067039106143
asI16
(lp150
F0.0
aF1.997206703910615
asI17
(lp151
F0.0
aF1.9972067039106143
asI18
(lp152
F0.0
aF1.997206703910615
asI19
(lp153
F0.0
aF1.9972067039106152
assI9
(dp154
I9
(lp155
F2.0
aF2.0
asI10
(lp156
F0.7510327022375215
aF2.0
asI11
(lp157
F0.0
aF2.0
asI12
(lp158
F0.0
aF2.0000000000000004
asI13
(lp159
F0.0
aF1.997907949790795
asI14
(lp160
F0.0
aF2.0000000000000004
asI15
(lp161
F0.0
aF2.0
asI16
(lp162
F0.0
aF2.0000000000000004
asI17
(lp163
F0.0
aF2.0
asI18
(lp164
F0.0
aF2.0
asI19
(lp165
F0.2391164658634538
aF2.0000000000000004
assI10
(dp166
I10
(lp167
F1.9999999999999998
aF1.9999999999999998
asI11
(lp168
F0.0
aF1.9999999999999996
asI12
(lp169
F0.0
aF2.0
asI13
(lp170
F0.0
aF1.9999999999999998
asI14
(lp171
F0.6296609328538237
aF1.9999999999999998
asI15
(lp172
F0.8833559345607538
aF1.9999999999999996
asI16
(lp173
F0.0
aF1.9999999999999996
asI17
(lp174
F0.0
aF2.0
asI18
(lp175
F0.0
aF2.0
asI19
(lp176
F0.0
aF1.9999999999999996
assI11
(dp177
I11
(lp178
F1.9817351598173514
aF1.9817351598173514
asI12
(lp179
F0.3542766766153924
aF1.992640493864952
asI13
(lp180
F0.0
aF1.9999999999999996
asI14
(lp181
F0.0
aF2.0
asI15
(lp182
F0.0
aF1.9999999999999993
asI16
(lp183
F0.0
aF1.9954337899543377
asI17
(lp184
F0.0
aF1.9977168949771686
asI18
(lp185
F0.0
aF1.9999999999999998
asI19
(lp186
F0.0
aF1.9999999999999998
assI12
(dp187
I12
(lp188
F1.9944134078212294
aF1.9888268156424584
asI13
(lp189
F0.0
aF1.9979079497907948
asI14
(lp190
F0.0
aF2.0
asI15
(lp191
F0.0
aF1.997206703910614
asI16
(lp192
F0.0
aF1.9944134078212288
asI17
(lp193
F0.0
aF1.997206703910615
asI18
(lp194
F0.41367055699983407
aF1.9975247524752477
asI19
(lp195
F0.0
aF2.0
assI13
(dp196
I13
(lp197
F1.9958158995815896
aF1.9958158995815896
asI14
(lp198
F0.0
aF2.0000000000000004
asI15
(lp199
F0.0
aF1.9999999999999996
asI16
(lp200
F0.0
aF1.9979079497907946
asI17
(lp201
F0.0
aF2.0
asI18
(lp202
F0.8519615559882348
aF1.9999999999999998
asI19
(lp203
F0.7670542700789209
aF1.9979079497907946
assI14
(dp204
I14
(lp205
F1.9960238568588469
aF1.9960238568588469
asI15
(lp206
F0.0
aF1.9999999999999996
asI16
(lp207
F0.0
aF1.9999999999999998
asI17
(lp208
F0.0
aF2.0000000000000004
asI18
(lp209
F0.0
aF2.0
asI19
(lp210
F0.0
aF2.0
assI15
(dp211
I16
(lp212
F0.0
aF1.9999999999999996
asI17
(lp213
F0.0
aF1.9999999999999996
asI18
(lp214
F0.0
aF1.9999999999999998
asI19
(lp215
F1.4111597906778628
aF1.9999999999999998
asI15
(lp216
F2.0
aF2.0
assI16
(dp217
I16
(lp218
F1.9918032786885247
aF1.9918032786885247
asI17
(lp219
F0.0
aF2.0
asI18
(lp220
F0.0
aF2.0000000000000004
asI19
(lp221
F0.0
aF1.998661311914324
assI17
(dp222
I17
(lp223
F2.0
aF2.0
asI18
(lp224
F0.0
aF2.0
asI19
(lp225
F0.0
aF2.0000000000000004
assI18
(dp226
I18
(lp227
F2.0
aF2.0
asI19
(lp228
F0.7863798428035574
aF2.0
assI19
(dp229
I19
(lp230
F1.9973226238286477
aF1.9973226238286477
ass.